
LT24_Test.elf:     file format elf32-littlenios2
LT24_Test.elf
architecture: nios2, flags 0x00000112:
EXEC_P, HAS_SYMS, D_PAGED
start address 0x000801b8

Program Header:
    LOAD off    0x00001000 vaddr 0x00080000 paddr 0x00080000 align 2**12
         filesz 0x00000020 memsz 0x00000020 flags r-x
    LOAD off    0x00001020 vaddr 0x00080020 paddr 0x00080020 align 2**12
         filesz 0x0002db44 memsz 0x0002db44 flags r-x
    LOAD off    0x0002eb64 vaddr 0x000adb64 paddr 0x000b1174 align 2**12
         filesz 0x00003610 memsz 0x00003610 flags rw-
    LOAD off    0x00032784 vaddr 0x000b4784 paddr 0x000b4784 align 2**12
         filesz 0x00000000 memsz 0x000002f0 flags rw-

Sections:
Idx Name          Size      VMA       LMA       File off  Algn
  0 .entry        00000020  00080000  00080000  00001000  2**5
                  CONTENTS, ALLOC, LOAD, READONLY, CODE
  1 .exceptions   00000198  00080020  00080020  00001020  2**2
                  CONTENTS, ALLOC, LOAD, READONLY, CODE
  2 .text         0001364c  000801b8  000801b8  000011b8  2**2
                  CONTENTS, ALLOC, LOAD, READONLY, CODE
  3 .rodata       0001a360  00093804  00093804  00014804  2**2
                  CONTENTS, ALLOC, LOAD, READONLY, DATA
  4 .rwdata       00003610  000adb64  000b1174  0002eb64  2**2
                  CONTENTS, ALLOC, LOAD, DATA, SMALL_DATA
  5 .bss          000002f0  000b4784  000b4784  00032784  2**2
                  ALLOC, SMALL_DATA
  6 .comment      00000023  00000000  00000000  00032174  2**0
                  CONTENTS, READONLY
  7 .debug_aranges 00001028  00000000  00000000  00032198  2**3
                  CONTENTS, READONLY, DEBUGGING
  8 .debug_info   0002b222  00000000  00000000  000331c0  2**0
                  CONTENTS, READONLY, DEBUGGING
  9 .debug_abbrev 0000a9fe  00000000  00000000  0005e3e2  2**0
                  CONTENTS, READONLY, DEBUGGING
 10 .debug_line   0000c8e5  00000000  00000000  00068de0  2**0
                  CONTENTS, READONLY, DEBUGGING
 11 .debug_frame  00002630  00000000  00000000  000756c8  2**2
                  CONTENTS, READONLY, DEBUGGING
 12 .debug_str    00004ed5  00000000  00000000  00077cf8  2**0
                  CONTENTS, READONLY, DEBUGGING
 13 .debug_loc    00012390  00000000  00000000  0007cbcd  2**0
                  CONTENTS, READONLY, DEBUGGING
 14 .debug_alt_sim_info 00000060  00000000  00000000  0008ef60  2**2
                  CONTENTS, READONLY, DEBUGGING
 15 .debug_ranges 00000a58  00000000  00000000  0008efc0  2**3
                  CONTENTS, READONLY, DEBUGGING
 16 .thread_model 00000003  00000000  00000000  0009532e  2**0
                  CONTENTS, READONLY
 17 .cpu          0000000a  00000000  00000000  00095331  2**0
                  CONTENTS, READONLY
 18 .qsys         00000001  00000000  00000000  0009533b  2**0
                  CONTENTS, READONLY
 19 .simulation_enabled 00000001  00000000  00000000  0009533c  2**0
                  CONTENTS, READONLY
 20 .sysid_hash   00000004  00000000  00000000  0009533d  2**0
                  CONTENTS, READONLY
 21 .sysid_base   00000004  00000000  00000000  00095341  2**0
                  CONTENTS, READONLY
 22 .sysid_time   00000004  00000000  00000000  00095345  2**0
                  CONTENTS, READONLY
 23 .stderr_dev   00000009  00000000  00000000  00095349  2**0
                  CONTENTS, READONLY
 24 .stdin_dev    00000009  00000000  00000000  00095352  2**0
                  CONTENTS, READONLY
 25 .stdout_dev   00000009  00000000  00000000  0009535b  2**0
                  CONTENTS, READONLY
 26 .sopc_system_name 00000009  00000000  00000000  00095364  2**0
                  CONTENTS, READONLY
 27 .quartus_project_dir 0000003b  00000000  00000000  0009536d  2**0
                  CONTENTS, READONLY
 28 .jdi          00004d67  00000000  00000000  000953a8  2**0
                  CONTENTS, READONLY
 29 .sopcinfo     000652b7  00000000  00000000  0009a10f  2**0
                  CONTENTS, READONLY
SYMBOL TABLE:
00080000 l    d  .entry	00000000 .entry
00080020 l    d  .exceptions	00000000 .exceptions
000801b8 l    d  .text	00000000 .text
00093804 l    d  .rodata	00000000 .rodata
000adb64 l    d  .rwdata	00000000 .rwdata
000b4784 l    d  .bss	00000000 .bss
00000000 l    d  .comment	00000000 .comment
00000000 l    d  .debug_aranges	00000000 .debug_aranges
00000000 l    d  .debug_info	00000000 .debug_info
00000000 l    d  .debug_abbrev	00000000 .debug_abbrev
00000000 l    d  .debug_line	00000000 .debug_line
00000000 l    d  .debug_frame	00000000 .debug_frame
00000000 l    d  .debug_str	00000000 .debug_str
00000000 l    d  .debug_loc	00000000 .debug_loc
00000000 l    d  .debug_alt_sim_info	00000000 .debug_alt_sim_info
00000000 l    d  .debug_ranges	00000000 .debug_ranges
00000000 l    df *ABS*	00000000 ../LT24_Test_bsp//obj/HAL/src/crt0.o
00080200 l       .text	00000000 alt_after_alt_main
00000000 l    df *ABS*	00000000 alt_exception_entry.o
00080094 l       .exceptions	00000000 alt_exception_unknown
00000000 l    df *ABS*	00000000 alt_irq_handler.c
00000000 l    df *ABS*	00000000 tahomabold_20.c
00093804 l     O .rodata	000000b6 tahomabold_20_33
000938ba l     O .rodata	00000104 tahomabold_20_34
000939be l     O .rodata	000001a0 tahomabold_20_35
00093b5e l     O .rodata	00000152 tahomabold_20_36
00093cb0 l     O .rodata	00000270 tahomabold_20_37
00093f20 l     O .rodata	000001ba tahomabold_20_38
000940da l     O .rodata	0000009c tahomabold_20_39
00094176 l     O .rodata	000000ea tahomabold_20_40
00094260 l     O .rodata	000000ea tahomabold_20_41
0009434a l     O .rodata	00000152 tahomabold_20_42
0009449c l     O .rodata	000001a0 tahomabold_20_43
0009463c l     O .rodata	0000009c tahomabold_20_44
000946d8 l     O .rodata	000000ea tahomabold_20_45
000947c2 l     O .rodata	0000009c tahomabold_20_46
0009485e l     O .rodata	00000138 tahomabold_20_47
00094996 l     O .rodata	00000152 tahomabold_20_48
00094ae8 l     O .rodata	00000152 tahomabold_20_49
00094c3a l     O .rodata	00000152 tahomabold_20_50
00094d8c l     O .rodata	00000152 tahomabold_20_51
00094ede l     O .rodata	00000152 tahomabold_20_52
00095030 l     O .rodata	00000152 tahomabold_20_53
00095182 l     O .rodata	00000152 tahomabold_20_54
000952d4 l     O .rodata	00000152 tahomabold_20_55
00095426 l     O .rodata	00000152 tahomabold_20_56
00095578 l     O .rodata	00000152 tahomabold_20_57
000956ca l     O .rodata	000000b6 tahomabold_20_58
00095780 l     O .rodata	000000b6 tahomabold_20_59
00095836 l     O .rodata	000001a0 tahomabold_20_60
000959d6 l     O .rodata	000001a0 tahomabold_20_61
00095b76 l     O .rodata	000001a0 tahomabold_20_62
00095d16 l     O .rodata	0000011e tahomabold_20_63
00095e34 l     O .rodata	000001d4 tahomabold_20_64
00096008 l     O .rodata	0000016c tahomabold_20_65
00096174 l     O .rodata	0000016c tahomabold_20_66
000962e0 l     O .rodata	00000152 tahomabold_20_67
00096432 l     O .rodata	00000186 tahomabold_20_68
000965b8 l     O .rodata	00000138 tahomabold_20_69
000966f0 l     O .rodata	00000138 tahomabold_20_70
00096828 l     O .rodata	00000186 tahomabold_20_71
000969ae l     O .rodata	00000186 tahomabold_20_72
00096b34 l     O .rodata	00000104 tahomabold_20_73
00096c38 l     O .rodata	00000104 tahomabold_20_74
00096d3c l     O .rodata	0000016c tahomabold_20_75
00096ea8 l     O .rodata	0000011e tahomabold_20_76
00096fc6 l     O .rodata	000001d4 tahomabold_20_77
0009719a l     O .rodata	00000186 tahomabold_20_78
00097320 l     O .rodata	00000186 tahomabold_20_79
000974a6 l     O .rodata	00000152 tahomabold_20_80
000975f8 l     O .rodata	00000186 tahomabold_20_81
0009777e l     O .rodata	00000186 tahomabold_20_82
00097904 l     O .rodata	00000152 tahomabold_20_83
00097a56 l     O .rodata	00000138 tahomabold_20_84
00097b8e l     O .rodata	00000186 tahomabold_20_85
00097d14 l     O .rodata	0000016c tahomabold_20_86
00097e80 l     O .rodata	00000222 tahomabold_20_87
000980a2 l     O .rodata	0000016c tahomabold_20_88
0009820e l     O .rodata	0000016c tahomabold_20_89
0009837a l     O .rodata	00000138 tahomabold_20_90
000984b2 l     O .rodata	000000ea tahomabold_20_91
0009859c l     O .rodata	00000138 tahomabold_20_92
000986d4 l     O .rodata	000000ea tahomabold_20_93
000987be l     O .rodata	000001a0 tahomabold_20_94
0009895e l     O .rodata	00000152 tahomabold_20_95
00098ab0 l     O .rodata	0000011e tahomabold_20_96
00098bce l     O .rodata	00000138 tahomabold_20_97
00098d06 l     O .rodata	00000152 tahomabold_20_98
00098e58 l     O .rodata	0000011e tahomabold_20_99
00098f76 l     O .rodata	00000152 tahomabold_20_100
000990c8 l     O .rodata	00000138 tahomabold_20_101
00099200 l     O .rodata	000000d0 tahomabold_20_102
000992d0 l     O .rodata	00000152 tahomabold_20_103
00099422 l     O .rodata	00000152 tahomabold_20_104
00099574 l     O .rodata	0000009c tahomabold_20_105
00099610 l     O .rodata	000000ea tahomabold_20_106
000996fa l     O .rodata	00000138 tahomabold_20_107
00099832 l     O .rodata	0000009c tahomabold_20_108
000998ce l     O .rodata	000001ee tahomabold_20_109
00099abc l     O .rodata	00000152 tahomabold_20_110
00099c0e l     O .rodata	00000138 tahomabold_20_111
00099d46 l     O .rodata	00000152 tahomabold_20_112
00099e98 l     O .rodata	00000152 tahomabold_20_113
00099fea l     O .rodata	000000ea tahomabold_20_114
0009a0d4 l     O .rodata	00000104 tahomabold_20_115
0009a1d8 l     O .rodata	000000d0 tahomabold_20_116
0009a2a8 l     O .rodata	00000152 tahomabold_20_117
0009a3fa l     O .rodata	00000138 tahomabold_20_118
0009a532 l     O .rodata	000001d4 tahomabold_20_119
0009a706 l     O .rodata	00000138 tahomabold_20_120
0009a83e l     O .rodata	00000138 tahomabold_20_121
0009a976 l     O .rodata	0000011e tahomabold_20_122
0009aa94 l     O .rodata	00000138 tahomabold_20_123
0009abcc l     O .rodata	00000152 tahomabold_20_124
0009ad1e l     O .rodata	00000138 tahomabold_20_125
0009ae56 l     O .rodata	000001a0 tahomabold_20_126
00000000 l    df *ABS*	00000000 tahomabold_32.c
0009aff6 l     O .rodata	000001b8 tahomabold_32_33
0009b1ae l     O .rodata	00000280 tahomabold_32_34
0009b42e l     O .rodata	00000410 tahomabold_32_35
0009b83e l     O .rodata	00000320 tahomabold_32_36
0009bb5e l     O .rodata	000005f0 tahomabold_32_37
0009c14e l     O .rodata	00000410 tahomabold_32_38
0009c55e l     O .rodata	00000168 tahomabold_32_39
0009c6c6 l     O .rodata	00000258 tahomabold_32_40
0009c91e l     O .rodata	00000258 tahomabold_32_41
0009cb76 l     O .rodata	00000320 tahomabold_32_42
0009ce96 l     O .rodata	00000410 tahomabold_32_43
0009d2a6 l     O .rodata	00000190 tahomabold_32_44
0009d436 l     O .rodata	00000230 tahomabold_32_45
0009d666 l     O .rodata	00000190 tahomabold_32_46
0009d7f6 l     O .rodata	000002d0 tahomabold_32_47
0009dac6 l     O .rodata	00000320 tahomabold_32_48
0009dde6 l     O .rodata	00000320 tahomabold_32_49
0009e106 l     O .rodata	00000320 tahomabold_32_50
0009e426 l     O .rodata	00000320 tahomabold_32_51
0009e746 l     O .rodata	00000320 tahomabold_32_52
0009ea66 l     O .rodata	00000320 tahomabold_32_53
0009ed86 l     O .rodata	00000320 tahomabold_32_54
0009f0a6 l     O .rodata	00000320 tahomabold_32_55
0009f3c6 l     O .rodata	00000320 tahomabold_32_56
0009f6e6 l     O .rodata	00000320 tahomabold_32_57
0009fa06 l     O .rodata	000001e0 tahomabold_32_58
0009fbe6 l     O .rodata	000001e0 tahomabold_32_59
0009fdc6 l     O .rodata	00000410 tahomabold_32_60
000a01d6 l     O .rodata	00000410 tahomabold_32_61
000a05e6 l     O .rodata	00000410 tahomabold_32_62
000a09f6 l     O .rodata	000002d0 tahomabold_32_63
000a0cc6 l     O .rodata	00000488 tahomabold_32_64
000a114e l     O .rodata	00000370 tahomabold_32_65
000a14be l     O .rodata	00000370 tahomabold_32_66
000a182e l     O .rodata	00000348 tahomabold_32_67
000a1b76 l     O .rodata	000003c0 tahomabold_32_68
000a1f36 l     O .rodata	00000320 tahomabold_32_69
000a2256 l     O .rodata	000002f8 tahomabold_32_70
000a254e l     O .rodata	000003c0 tahomabold_32_71
000a290e l     O .rodata	000003c0 tahomabold_32_72
000a2cce l     O .rodata	00000258 tahomabold_32_73
000a2f26 l     O .rodata	00000280 tahomabold_32_74
000a31a6 l     O .rodata	00000398 tahomabold_32_75
000a353e l     O .rodata	000002d0 tahomabold_32_76
000a380e l     O .rodata	00000488 tahomabold_32_77
000a3c96 l     O .rodata	000003e8 tahomabold_32_78
000a407e l     O .rodata	000003e8 tahomabold_32_79
000a4466 l     O .rodata	00000348 tahomabold_32_80
000a47ae l     O .rodata	000003e8 tahomabold_32_81
000a4b96 l     O .rodata	000003c0 tahomabold_32_82
000a4f56 l     O .rodata	00000320 tahomabold_32_83
000a5276 l     O .rodata	00000320 tahomabold_32_84
000a5596 l     O .rodata	000003c0 tahomabold_32_85
000a5956 l     O .rodata	00000370 tahomabold_32_86
000a5cc6 l     O .rodata	00000528 tahomabold_32_87
000a61ee l     O .rodata	00000370 tahomabold_32_88
000a655e l     O .rodata	00000370 tahomabold_32_89
000a68ce l     O .rodata	00000320 tahomabold_32_90
000a6bee l     O .rodata	00000258 tahomabold_32_91
000a6e46 l     O .rodata	000002d0 tahomabold_32_92
000a7116 l     O .rodata	00000258 tahomabold_32_93
000a736e l     O .rodata	00000410 tahomabold_32_94
000a777e l     O .rodata	00000320 tahomabold_32_95
000a7a9e l     O .rodata	000002a8 tahomabold_32_96
000a7d46 l     O .rodata	000002f8 tahomabold_32_97
000a803e l     O .rodata	00000320 tahomabold_32_98
000a835e l     O .rodata	000002a8 tahomabold_32_99
000a8606 l     O .rodata	00000320 tahomabold_32_100
000a8926 l     O .rodata	000002f8 tahomabold_32_101
000a8c1e l     O .rodata	00000230 tahomabold_32_102
000a8e4e l     O .rodata	00000320 tahomabold_32_103
000a916e l     O .rodata	00000320 tahomabold_32_104
000a948e l     O .rodata	00000190 tahomabold_32_105
000a961e l     O .rodata	00000208 tahomabold_32_106
000a9826 l     O .rodata	000002f8 tahomabold_32_107
000a9b1e l     O .rodata	00000190 tahomabold_32_108
000a9cae l     O .rodata	000004d8 tahomabold_32_109
000aa186 l     O .rodata	00000320 tahomabold_32_110
000aa4a6 l     O .rodata	00000320 tahomabold_32_111
000aa7c6 l     O .rodata	00000320 tahomabold_32_112
000aaae6 l     O .rodata	00000320 tahomabold_32_113
000aae06 l     O .rodata	00000230 tahomabold_32_114
000ab036 l     O .rodata	00000280 tahomabold_32_115
000ab2b6 l     O .rodata	00000208 tahomabold_32_116
000ab4be l     O .rodata	00000320 tahomabold_32_117
000ab7de l     O .rodata	000002f8 tahomabold_32_118
000abad6 l     O .rodata	00000460 tahomabold_32_119
000abf36 l     O .rodata	000002f8 tahomabold_32_120
000ac22e l     O .rodata	000002d0 tahomabold_32_121
000ac4fe l     O .rodata	000002a8 tahomabold_32_122
000ac7a6 l     O .rodata	00000320 tahomabold_32_123
000acac6 l     O .rodata	00000320 tahomabold_32_124
000acde6 l     O .rodata	00000320 tahomabold_32_125
000ad106 l     O .rodata	00000410 tahomabold_32_126
00000000 l    df *ABS*	00000000 geometry.c
00000000 l    df *ABS*	00000000 ILI9341.c
00000000 l    df *ABS*	00000000 simple_graphics.c
00000000 l    df *ABS*	00000000 simple_text.c
00000000 l    df *ABS*	00000000 gui.c
000b4784 l     O .bss	00000004 x.3825
000b1130 l     O .rwdata	00000004 y.3826
00000000 l    df *ABS*	00000000 gui_vpg.c
00000000 l    df *ABS*	00000000 main.c
00000000 l    df *ABS*	00000000 I2C.c
00000000 l    df *ABS*	00000000 debug.c
00000000 l    df *ABS*	00000000 queue.c
00000000 l    df *ABS*	00000000 touch_spi.c
00000000 l    df *ABS*	00000000 w_sqrt.c
00000000 l    df *ABS*	00000000 e_sqrt.c
00000000 l    df *ABS*	00000000 s_isnand.c
00000000 l    df *ABS*	00000000 s_lib_ver.c
00000000 l    df *ABS*	00000000 s_matherr.c
00000000 l    df *ABS*	00000000 fp-bit.c
00087768 l     F .text	00000354 _fpadd_parts
00000000 l    df *ABS*	00000000 fp-bit.c
00000000 l    df *ABS*	00000000 fp-bit.c
00000000 l    df *ABS*	00000000 fp-bit.c
00000000 l    df *ABS*	00000000 fp-bit.c
00000000 l    df *ABS*	00000000 fp-bit.c
00000000 l    df *ABS*	00000000 fp-bit.c
00000000 l    df *ABS*	00000000 lib2-divmod.c
0008820c l     F .text	00000074 udivmodsi4
00000000 l    df *ABS*	00000000 libgcc2.c
00000000 l    df *ABS*	00000000 libgcc2.c
00000000 l    df *ABS*	00000000 fp-bit.c
00000000 l    df *ABS*	00000000 fp-bit.c
00000000 l    df *ABS*	00000000 fp-bit.c
00000000 l    df *ABS*	00000000 libgcc2.c
00000000 l    df *ABS*	00000000 libgcc2.c
00000000 l    df *ABS*	00000000 libgcc2.c
00000000 l    df *ABS*	00000000 errno.c
00000000 l    df *ABS*	00000000 impure.c
000af710 l     O .rwdata	00000400 impure_data
00000000 l    df *ABS*	00000000 malloc.c
00000000 l    df *ABS*	00000000 mallocr.c
00000000 l    df *ABS*	00000000 memcpy.c
00000000 l    df *ABS*	00000000 memset.c
00000000 l    df *ABS*	00000000 printf.c
00000000 l    df *ABS*	00000000 puts.c
00000000 l    df *ABS*	00000000 sbrkr.c
00000000 l    df *ABS*	00000000 sprintf.c
00000000 l    df *ABS*	00000000 strcpy.c
00000000 l    df *ABS*	00000000 strlen.c
00000000 l    df *ABS*	00000000 vfprintf.c
000895a0 l     F .text	00000034 __sprint_r
000ad9a2 l     O .rodata	00000010 blanks.3515
000ad9b2 l     O .rodata	00000010 zeroes.3516
00000000 l    df *ABS*	00000000 vsnprintf.c
00000000 l    df *ABS*	00000000 wsetup.c
00000000 l    df *ABS*	00000000 dtoa.c
0008b650 l     F .text	00000208 quorem
00000000 l    df *ABS*	00000000 fflush.c
00000000 l    df *ABS*	00000000 findfp.c
0008d08c l     F .text	00000008 __fp_lock
0008d094 l     F .text	00000008 __fp_unlock
00000000 l    df *ABS*	00000000 mallocr.c
00000000 l    df *ABS*	00000000 fvwrite.c
00000000 l    df *ABS*	00000000 fwalk.c
00000000 l    df *ABS*	00000000 int_errno.c
00000000 l    df *ABS*	00000000 locale.c
000ad9e4 l     O .rodata	00000030 lconv
00000000 l    df *ABS*	00000000 makebuf.c
00000000 l    df *ABS*	00000000 memchr.c
00000000 l    df *ABS*	00000000 memmove.c
00000000 l    df *ABS*	00000000 mprec.c
000adb2c l     O .rodata	0000000c p05.2435
00000000 l    df *ABS*	00000000 mallocr.c
00000000 l    df *ABS*	00000000 s_isinfd.c
00000000 l    df *ABS*	00000000 stdio.c
00000000 l    df *ABS*	00000000 strcmp.c
00000000 l    df *ABS*	00000000 writer.c
00000000 l    df *ABS*	00000000 mallocr.c
00000000 l    df *ABS*	00000000 closer.c
00000000 l    df *ABS*	00000000 fclose.c
00000000 l    df *ABS*	00000000 fstatr.c
00000000 l    df *ABS*	00000000 isattyr.c
00000000 l    df *ABS*	00000000 lseekr.c
00000000 l    df *ABS*	00000000 readr.c
00000000 l    df *ABS*	00000000 libgcc2.c
00000000 l    df *ABS*	00000000 libgcc2.c
00000000 l    df *ABS*	00000000 fp-bit.c
00000000 l    df *ABS*	00000000 fp-bit.c
00000000 l    df *ABS*	00000000 fp-bit.c
00000000 l    df *ABS*	00000000 fp-bit.c
00000000 l    df *ABS*	00000000 fp-bit.c
00000000 l    df *ABS*	00000000 alt_alarm_start.c
00000000 l    df *ABS*	00000000 alt_close.c
00090dc8 l     F .text	00000050 alt_get_errno
00000000 l    df *ABS*	00000000 alt_dev.c
00090ee0 l     F .text	0000002c alt_dev_null_write
00000000 l    df *ABS*	00000000 alt_errno.c
00000000 l    df *ABS*	00000000 alt_fstat.c
00090f0c l     F .text	00000050 alt_get_errno
00000000 l    df *ABS*	00000000 alt_iic.c
00000000 l    df *ABS*	00000000 alt_iic_isr_register.c
00000000 l    df *ABS*	00000000 alt_irq_vars.c
00000000 l    df *ABS*	00000000 alt_isatty.c
000912d0 l     F .text	00000050 alt_get_errno
00000000 l    df *ABS*	00000000 alt_load.c
000913c0 l     F .text	0000006c alt_load_section
00000000 l    df *ABS*	00000000 alt_lseek.c
000914ac l     F .text	00000050 alt_get_errno
00000000 l    df *ABS*	00000000 alt_main.c
00000000 l    df *ABS*	00000000 alt_malloc_lock.c
00000000 l    df *ABS*	00000000 alt_read.c
00091684 l     F .text	00000050 alt_get_errno
00000000 l    df *ABS*	00000000 alt_release_fd.c
00000000 l    df *ABS*	00000000 alt_sbrk.c
000b1168 l     O .rwdata	00000004 heap_end
00000000 l    df *ABS*	00000000 alt_tick.c
00000000 l    df *ABS*	00000000 alt_usleep.c
00000000 l    df *ABS*	00000000 alt_write.c
00091aa0 l     F .text	00000050 alt_get_errno
00000000 l    df *ABS*	00000000 alt_sys_init.c
00091bdc l     F .text	00000038 alt_dev_reg
000b00cc l     O .rwdata	00001060 jtag_uart
00000000 l    df *ABS*	00000000 altera_avalon_jtag_uart_fd.c
00000000 l    df *ABS*	00000000 altera_avalon_jtag_uart_init.c
00091ed0 l     F .text	00000204 altera_avalon_jtag_uart_irq
000920d4 l     F .text	000000a4 altera_avalon_jtag_uart_timeout
00000000 l    df *ABS*	00000000 altera_avalon_jtag_uart_ioctl.c
00000000 l    df *ABS*	00000000 altera_avalon_jtag_uart_read.c
00000000 l    df *ABS*	00000000 altera_avalon_jtag_uart_write.c
00000000 l    df *ABS*	00000000 altera_avalon_spi.c
00000000 l    df *ABS*	00000000 altera_avalon_timer_sc.c
00092918 l     F .text	00000074 alt_avalon_timer_sc_irq
00000000 l    df *ABS*	00000000 alt_busy_sleep.c
00000000 l    df *ABS*	00000000 alt_dcache_flush_all.c
00000000 l    df *ABS*	00000000 alt_dev_llist_insert.c
00092bac l     F .text	00000050 alt_get_errno
00000000 l    df *ABS*	00000000 alt_do_ctors.c
00000000 l    df *ABS*	00000000 alt_do_dtors.c
00000000 l    df *ABS*	00000000 alt_icache_flush_all.c
00000000 l    df *ABS*	00000000 alt_io_redirect.c
00092d84 l     F .text	000000c0 alt_open_fd
00000000 l    df *ABS*	00000000 alt_open.c
00092ebc l     F .text	00000050 alt_get_errno
00092f0c l     F .text	000000cc alt_file_locked
00000000 l    df *ABS*	00000000 altera_nios2_qsys_irq.c
00000000 l    df *ABS*	00000000 alt_find_dev.c
00000000 l    df *ABS*	00000000 alt_find_file.c
00000000 l    df *ABS*	00000000 alt_get_fd.c
00000000 l    df *ABS*	00000000 alt_icache_flush.c
00000000 l    df *ABS*	00000000 atexit.c
00000000 l    df *ABS*	00000000 exit.c
00000000 l    df *ABS*	00000000 memcmp.c
00000000 l    df *ABS*	00000000 __atexit.c
00000000 l    df *ABS*	00000000 __call_atexit.c
00000000 l    df *ABS*	00000000 alt_exit.c
00000000 l    df *ABS*	00000000 
00081c80 g     F .text	00000078 vid_draw_horiz_line
0008f08c g     F .text	00000074 _mprec_log10
000855cc g     F .text	00000124 I2C_Read
0008f17c g     F .text	00000084 __any_on
0008fd5c g     F .text	00000064 _isatty_r
000ada14 g     O .rodata	00000028 __mprec_tinytens
00080780 g     F .text	0000006c LCD_DrawPoint
000915cc g     F .text	00000078 alt_main
00089480 g     F .text	00000094 strcpy
00088884 g     F .text	00000044 __ashldi3
000892c0 g     F .text	00000084 _puts_r
000b47e4 g     O .bss	00000100 alt_irq
0008fdc0 g     F .text	0000006c _lseek_r
00081de4 g     F .text	0000006c vid_color_convert16_24
00087328 g     F .text	00000148 sqrt
00086378 g     F .text	000000a0 I2CL_Read16
000b1174 g       *ABS*	00000000 __flash_rwdata_start
000909ec g     F .text	0000005c __eqdf2
00086d34 g     F .text	00000164 touch_enable_penirq
000b4a74 g       *ABS*	00000000 __alt_heap_start
00086734 g     F .text	00000064 QUEUE_IsFull
00080e58 g     F .text	00000138 LCD_Pattern_Horizon
00089284 g     F .text	0000003c printf
0008420c g     F .text	000001dc GUI_DeskInit
0008f910 g     F .text	0000005c __sseek
0008d11c g     F .text	0000010c __sinit
0008ddb4 g     F .text	0000009c _setlocale_r
0008d0a8 g     F .text	00000064 __sfmoreglue
00091664 g     F .text	00000020 __malloc_unlock
000818d4 g     F .text	00000150 vid_draw_box
000805b4 g     F .text	00000044 PtCopy
00083710 g     F .text	0000025c vid_print_string_alpha
0008e130 g     F .text	00000128 memmove
0008d10c g     F .text	00000010 _cleanup
0008e258 g     F .text	000000a8 _Balloc
000af2e4 g     O .rwdata	00000415 cour10_font_array
00090aa4 g     F .text	00000064 __gtdf2
000816b0 g     F .text	0000011c vid_move_block
000888c8 g     F .text	00000010 __errno
000861fc g     F .text	0000017c I2CL_MultipleWrite
0008405c g     F .text	000000e0 vid_string_pixel_length_alpha
00085ad8 g     F .text	0000016c i2c_write
00080000 g     F .entry	0000001c __reset
00085350 g     F .text	00000040 my_wait
00080020 g       *ABS*	00000000 __flash_exceptions_start
00080700 g     F .text	00000080 LCD_Clear
0008fcf4 g     F .text	00000068 _fstat_r
000b4794 g     O .bss	00000004 errno
000856f0 g     F .text	00000178 I2C_Read16
000b47ac g     O .bss	00000004 alt_argv
000b912c g       *ABS*	00000000 _gp
00091a70 g     F .text	00000030 usleep
00084b24 g     F .text	000000b0 VPG_ColorPanel
0008396c g     F .text	00000154 seperate_color_channels
000aff4c g     O .rwdata	00000180 alt_fd_list
0009314c g     F .text	00000090 alt_find_dev
00089084 g     F .text	000000f8 memcpy
0008d09c g     F .text	0000000c _cleanup_r
00088064 g     F .text	000000d4 __floatsidf
000825e8 g     F .text	00000758 vid_round_corner_points
00086a5c g     F .text	0000006c Touch_UnInit
00092e44 g     F .text	00000078 alt_io_redirect
00088008 g     F .text	0000005c __ltdf2
00093804 g       *ABS*	00000000 __DTOR_END__
000843e8 g     F .text	00000090 GUI_CheckButton
00089344 g     F .text	00000014 puts
00081070 g     F .text	00000060 vid_clean_screen
0008efe8 g     F .text	000000a4 __ratio
000866f4 g     F .text	00000040 QUEUE_IsEmpty
000811dc g     F .text	00000154 vid_scroll_string_init
000922d4 g     F .text	00000218 altera_avalon_jtag_uart_read
000888d8 g     F .text	00000014 malloc
00089258 g     F .text	0000002c _printf_r
000868ec g     F .text	00000170 Touch_Init
0008832c g     F .text	00000008 __udivsi3
00091320 g     F .text	000000a0 isatty
000ada64 g     O .rodata	000000c8 __mprec_tens
0008de50 g     F .text	0000000c __locale_charset
0008b49c g     F .text	00000040 vsnprintf
00084478 g     F .text	00000238 GUI_DeskDraw
000933a4 g     F .text	0000008c alt_icache_flush
00085868 g     F .text	0000017c I2C_MultipleRead
000b4790 g     O .bss	00000004 __malloc_top_pad
000868bc g     F .text	00000030 QUEUE_Empty
000b1148 g     O .rwdata	00000004 __mb_cur_max
0008de5c g     F .text	0000000c _localeconv_r
0008e658 g     F .text	0000003c __i2b
0008d770 g     F .text	000004e4 __sfvwrite_r
0008682c g     F .text	00000090 QUEUE_Pop
00089358 g     F .text	00000064 _sbrk_r
00086cc4 g     F .text	00000030 touch_empty_fifo
000804cc g     F .text	00000034 RectHeight
0008fe2c g     F .text	0000006c _read_r
000aff18 g     O .rwdata	0000000c __lc_ctype
000b115c g     O .rwdata	00000004 alt_max_fd
0008866c g     F .text	00000104 __unpack_d
00084b00 g     F .text	00000024 VPG_XLine
0008fba4 g     F .text	0000013c _fclose_r
0008d05c g     F .text	00000030 fflush
000b478c g     O .bss	00000004 __malloc_max_sbrked_mem
00085ed4 g     F .text	00000168 I2CL_Read
000ae724 g     O .rwdata	00000bc0 tahomabold_32
00087abc g     F .text	00000054 __adddf3
0008473c g     F .text	00000080 GUI_ClearPaintArea
00080288 g     F .text	00000040 PtSet
0008ed5c g     F .text	00000148 __b2d
00090460 g     F .text	0000058c __umoddi3
000914fc g     F .text	000000d0 lseek
000b1134 g     O .rwdata	00000004 __fdlib_version
000b1138 g     O .rwdata	00000004 _global_impure_ptr
000820f4 g     F .text	0000013c vid_draw_circle
0008f200 g     F .text	000005fc _realloc_r
000b4a74 g       *ABS*	00000000 __bss_end
000911e0 g     F .text	000000f0 alt_iic_isr_register
0009196c g     F .text	00000104 alt_tick
0008548c g     F .text	00000140 I2C_Write16
000803ac g     F .text	00000088 RectOffset
0008fe98 g     F .text	000005c8 __udivdi3
000ada3c g     O .rodata	00000028 __mprec_bigtens
0008e43c g     F .text	00000104 __s2b
00081e90 g     F .text	00000264 vid_draw_sloped_line
00090b6c g     F .text	0000011c __floatunsidf
0008eafc g     F .text	00000058 __mcmp
00084cd0 g     F .text	000000e4 VPG_VGrid
0008d334 g     F .text	00000018 __fp_lock_all
00091194 g     F .text	0000004c alt_ic_irq_enabled
00085390 g     F .text	000000fc I2C_Write
00082230 g     F .text	000003b8 vid_draw_round_corner_box
000918d4 g     F .text	00000098 alt_alarm_stop
000b47a4 g     O .bss	00000004 alt_irq_active
00080f90 g     F .text	000000e0 LCD_Pattern_Vertical
000800ec g     F .exceptions	000000cc alt_irq_handler
000aff24 g     O .rwdata	00000028 alt_dev_null
00086418 g     F .text	0000008c I2CL_Write16
000859e4 g     F .text	00000084 i2c_start
00092b68 g     F .text	00000044 alt_dcache_flush_all
0008e540 g     F .text	00000068 __hi0bits
000871d4 g     F .text	00000078 touch_alarm_callback
00088138 g     F .text	000000d4 __fixdfsi
00086cf4 g     F .text	00000040 touch_is_pen_pressed
000b1174 g       *ABS*	00000000 __ram_rwdata_end
00083174 g     F .text	00000394 vid_draw_triangle
00080000 g       *ABS*	00000000 __alt_mem_onchip_memory
000b1154 g     O .rwdata	00000008 alt_dev_list
00091af0 g     F .text	000000ec write
000af6fc g     O .rwdata	00000014 szPallete
000835e4 g     F .text	0000012c CropImage16
000adb64 g       *ABS*	00000000 __ram_rodata_end
00090f5c g     F .text	000000ac fstat
00088840 g     F .text	00000044 __lshrdi3
00081330 g     F .text	00000380 vid_scroll_string
000864d4 g     F .text	0000006c myprintf
00086ec8 g     F .text	0000030c touch_get_xy
0008e874 g     F .text	0000012c __pow5mult
000b47a0 g     O .bss	00000004 __nlocale_changed
00088334 g     F .text	00000008 __umodsi3
00086c4c g     F .text	00000078 touch_isr
00080498 g     F .text	00000034 RectWidth
00083508 g     F .text	000000dc CopyImage16
000b4a74 g       *ABS*	00000000 end
000851b8 g     F .text	000000b0 GUI_VPG
000849e4 g     F .text	00000064 GUI_ShowInfo
00091e10 g     F .text	000000c0 altera_avalon_jtag_uart_init
00081a24 g     F .text	000000f0 vid_print_char
00093804 g       *ABS*	00000000 __CTOR_LIST__
000c45c0 g       *ABS*	00000000 __alt_stack_pointer
0009298c g     F .text	00000088 alt_avalon_timer_sc_init
0008839c g     F .text	000000ac __clzsi2
000924ec g     F .text	00000224 altera_avalon_jtag_uart_write
00085038 g     F .text	00000180 GUI_ShowPAT
00082d94 g     F .text	00000054 min3
000810d0 g     F .text	000000cc vid_draw_line
0008d324 g     F .text	00000004 __sfp_lock_acquire
0008e038 g     F .text	000000f8 memchr
000895d4 g     F .text	00001df8 ___vfprintf_internal_r
000893bc g     F .text	00000058 _sprintf_r
0008d4a0 g     F .text	000002d0 _free_r
0008064c g     F .text	000000b4 LCD_SetCursor
00093628 g     F .text	000001a0 __call_exitprocs
000b479c g     O .bss	00000004 __mlocale_changed
00084bd4 g     F .text	000000fc VPG_Grid
000b1140 g     O .rwdata	00000004 __malloc_sbrk_base
000801b8 g     F .text	0000004c _start
000b47b4 g     O .bss	00000004 _alt_tick_rate
00086e98 g     F .text	00000030 touch_clear_input
0008e9a0 g     F .text	0000015c __lshift
00092710 g     F .text	00000208 alt_avalon_spi_command
00086798 g     F .text	00000094 QUEUE_Push
000b47b8 g     O .bss	00000004 _alt_nticks
00082e4c g     F .text	000000f0 vid_put_pixel_in_span_map
000916d4 g     F .text	000000f0 read
00084e98 g     F .text	000001a0 VPG_ColorBar
00091c48 g     F .text	00000064 alt_sys_init
000934f8 g     F .text	00000130 __register_exitproc
0008e694 g     F .text	000001e0 __multiply
00081bec g     F .text	00000094 vid_paint_block
00092178 g     F .text	00000068 altera_avalon_jtag_uart_close
000adb64 g       *ABS*	00000000 __ram_rwdata_start
00093804 g       *ABS*	00000000 __ram_rodata_start
000b47bc g     O .bss	00000028 __malloc_current_mallinfo
0008eea4 g     F .text	00000144 __d2b
00084db4 g     F .text	000000e4 VPG_HGrid
00081d44 g     F .text	000000a0 vid_color_convert24_16
00091cac g     F .text	00000060 altera_avalon_jtag_uart_read_fd
000932f0 g     F .text	000000b4 alt_get_fd
00092a14 g     F .text	00000154 alt_busy_sleep
00088770 g     F .text	000000d0 __fpcmp_parts_d
0008fb40 g     F .text	00000064 _close_r
000847bc g     F .text	00000228 GUI
00083c48 g     F .text	00000254 alpha_blending
0009347c g     F .text	0000007c memcmp
00091d6c g     F .text	00000050 altera_avalon_jtag_uart_close_fd
000b4a74 g       *ABS*	00000000 __alt_stack_base
00091dbc g     F .text	00000054 altera_avalon_jtag_uart_ioctl_fd
0008b4dc g     F .text	00000174 __swsetup_r
00087e54 g     F .text	000001b4 __divdf3
0008d228 g     F .text	000000fc __sfp
0008f100 g     F .text	0000007c __copybits
000afb10 g     O .rwdata	00000408 __malloc_av_
0008d330 g     F .text	00000004 __sinit_lock_release
0008b3f0 g     F .text	000000ac _vsnprintf_r
00085a68 g     F .text	00000070 i2c_stop
00087b70 g     F .text	000002e4 __muldf3
0008f834 g     F .text	00000054 __sread
000931dc g     F .text	00000114 alt_find_file
00092bfc g     F .text	000000a0 alt_dev_llist_insert
00091644 g     F .text	00000020 __malloc_lock
00081e50 g     F .text	00000040 vid_copy_line_to_frame_buffer
00091824 g     F .text	000000b0 sbrk
0008ce74 g     F .text	000001e8 _fflush_r
0008fa84 g     F .text	000000bc _calloc_r
00086654 g     F .text	00000070 QUEUE_New
000b4784 g       *ABS*	00000000 __bss_start
000807ec g     F .text	0000066c LCD_Init
0008917c g     F .text	000000dc memset
00085268 g     F .text	000000e8 main
000b47b0 g     O .bss	00000004 alt_envp
000b4788 g     O .bss	00000004 __malloc_max_total_mem
00086540 g     F .text	00000088 myprintf_hexarray
00091d0c g     F .text	00000060 altera_avalon_jtag_uart_write_fd
00084a48 g     F .text	00000058 GUI_ShowTouchPoint
00085c44 g     F .text	00000150 i2c_read
000adb64 g     O .rwdata	00000bc0 tahomabold_20
0008f96c g     F .text	00000008 __sclose
00087760 g     F .text	00000008 matherr
000c45c0 g       *ABS*	00000000 __alt_heap_limit
00083e9c g     F .text	000001c0 vid_print_char_alpha
0008fce0 g     F .text	00000014 fclose
000b112c g     O .rwdata	00000004 cour10_font
000b48e4 g     O .bss	00000190 _atexit0
0008b858 g     F .text	0000161c _dtoa_r
00088900 g     F .text	00000784 _malloc_r
000b1160 g     O .rwdata	00000004 alt_errno
0008dc54 g     F .text	000000a8 _fwalk
00080500 g     F .text	000000b4 PtDistance
000802c8 g     F .text	0000005c RectSet
00088280 g     F .text	00000050 __divsi3
000805f8 g     F .text	00000054 Delay_Ms
00080434 g     F .text	00000064 RectCopy
000ad844 g     O .rodata	00000014 __thenan_df
0008d364 g     F .text	0000013c _malloc_trim_r
00093804 g       *ABS*	00000000 __CTOR_END__
0008f974 g     F .text	000000a4 strcmp
00083c08 g     F .text	00000040 read_from_frame
00093804 g       *ABS*	00000000 __flash_rodata_start
00093804 g       *ABS*	00000000 __DTOR_LIST__
00081bb0 g     F .text	0000003c vid_get_pixel
00090a48 g     F .text	0000005c __nedf2
00091c14 g     F .text	00000034 alt_irq_init
000917c4 g     F .text	00000060 alt_release_fd
00089414 g     F .text	0000006c sprintf
000ad858 g     O .rodata	00000100 __clz_tab
000864a4 g     F .text	00000030 debug_output
000b4798 g     O .bss	00000004 _PathLocale
00093430 g     F .text	00000014 atexit
0008fa18 g     F .text	0000006c _write_r
00080204 g     F .text	00000084 IsPtInRect
0008de68 g     F .text	0000001c setlocale
000b113c g     O .rwdata	00000004 _impure_ptr
000b47a8 g     O .bss	00000004 alt_argc
00092cf8 g     F .text	0000005c _do_dtors
000865c8 g     F .text	0000008c myprintf_dwordarray
0008603c g     F .text	000001c0 I2CL_MultipleRead
00080020 g       .exceptions	00000000 alt_irq_entry
0008ecfc g     F .text	00000060 __ulp
0008f7fc g     F .text	00000038 __isinfd
0008d34c g     F .text	00000018 __fp_unlock_all
00086b00 g     F .text	0000014c Touch_GetXY
000b114c g     O .rwdata	00000008 alt_fs_list
000817cc g     F .text	00000108 vid_print_string
00080020 g       *ABS*	00000000 __ram_exceptions_start
0008de84 g     F .text	0000000c localeconv
00087470 g     F .text	000002c4 __ieee754_sqrt
00091008 g     F .text	00000050 alt_ic_isr_register
000b1174 g       *ABS*	00000000 _edata
000b4a74 g       *ABS*	00000000 _end
00084aa0 g     F .text	00000060 ShowInfo
00082d40 g     F .text	00000054 max3
000801b8 g       *ABS*	00000000 __ram_exceptions_end
000921e0 g     F .text	000000f4 altera_avalon_jtag_uart_ioctl
000910f4 g     F .text	000000a0 alt_ic_irq_disable
00081cf8 g     F .text	0000004c vid_merge_colors
0008f888 g     F .text	00000088 __swrite
000b1144 g     O .rwdata	00000004 __malloc_trim_threshold
0009312c g     F .text	00000020 altera_nios2_qsys_irq_init
00093444 g     F .text	00000038 exit
0008dcfc g     F .text	000000b8 _fwalk_reent
0008eb54 g     F .text	000001a8 __mdiff
000846b0 g     F .text	0000008c IsContinuedPoint
000882d0 g     F .text	0000005c __modsi3
000c45c0 g       *ABS*	00000000 __alt_data_end
00080020 g     F .exceptions	00000000 alt_exception
0008d328 g     F .text	00000004 __sfp_lock_release
000866c4 g     F .text	00000030 QUEUE_Delete
0008724c g     F .text	000000dc touch_xy_transform
00081b14 g     F .text	0000009c vid_set_pixel
000937c8 g     F .text	0000003c _exit
00087734 g     F .text	0000002c __isnand
00090c88 g     F .text	00000140 alt_alarm_start
0008119c g     F .text	00000040 vid_scroll_string_quit
0008833c g     F .text	00000060 __muldi3
0008de90 g     F .text	000001a8 __smakebuf_r
00089514 g     F .text	0000008c strlen
00092fd8 g     F .text	00000154 open
00090b08 g     F .text	00000064 __gedf2
00080324 g     F .text	00000088 RectInflate
00092d54 g     F .text	00000030 alt_icache_flush_all
000b1164 g     O .rwdata	00000004 alt_priority_mask
00091058 g     F .text	0000009c alt_ic_irq_enable
0008b3cc g     F .text	00000024 __vfprintf_internal
00087b10 g     F .text	00000060 __subdf3
00082f3c g     F .text	00000238 vid_bres_scan_edges
0008e5a8 g     F .text	000000b0 __lo0bits
000b116c g     O .rwdata	00000008 alt_alarm_list
00082de8 g     F .text	00000064 max_diff3
00092c9c g     F .text	0000005c _do_ctors
00085d94 g     F .text	00000140 I2CL_Write
0008413c g     F .text	000000d0 GUI_ShowWelcome
00083ac0 g     F .text	00000148 merge_color_channels
00090e18 g     F .text	000000c8 close
0009142c g     F .text	00000080 alt_load
00086ac8 g     F .text	00000038 Touch_EmptyFifo
00088448 g     F .text	00000224 __pack_d
000888ec g     F .text	00000014 free
0008d32c g     F .text	00000004 __sinit_lock_acquire
0008e328 g     F .text	00000114 __multadd
0008e300 g     F .text	00000028 _Bfree



Disassembly of section .entry:

00080000 <__reset>:
#if NIOS2_ICACHE_SIZE > 0 && defined(ALT_ALLOW_CODE_AT_RESET) && !defined(ALT_SIM_OPTIMIZE)
    /* Assume the instruction cache size is always a power of two. */
#if NIOS2_ICACHE_SIZE > 0x8000
    movhi r2, %hi(NIOS2_ICACHE_SIZE)
#else
    movui r2, NIOS2_ICACHE_SIZE
   80000:	00840014 	movui	r2,4096
#endif

0:
    initi r2
   80004:	1001483a 	initi	r2
    addi r2, r2, -NIOS2_ICACHE_LINE_SIZE
   80008:	10bff804 	addi	r2,r2,-32
    bgt r2, zero, 0b
   8000c:	00bffd16 	blt	zero,r2,80004 <__reset+0x4>
 * Jump to the _start entry point in the .text section if reset code
 * is allowed or if optimizing for RTL simulation.
 */
#if defined(ALT_ALLOW_CODE_AT_RESET) || defined(ALT_SIM_OPTIMIZE)
    /* Jump to the _start entry point in the .text section. */
    movhi r1, %hi(_start)
   80010:	00400234 	movhi	at,8
    ori r1, r1, %lo(_start)
   80014:	08406e14 	ori	at,at,440
    jmp r1
   80018:	0800683a 	jmp	at
   8001c:	00000000 	call	0 <__reset-0x80000>

Disassembly of section .exceptions:

00080020 <alt_exception>:

#else /* ALT_EXCEPTION_STACK disabled */
        /* 
         * Reserve space on normal stack for registers about to be pushed.
         */
        addi  sp, sp, -76
   80020:	deffed04 	addi	sp,sp,-76
         * documentation for details).
         *
         * Leave a gap in the stack frame at 4(sp) for the muldiv handler to
         * store zero into.
         */
        stw   ra,  0(sp)
   80024:	dfc00015 	stw	ra,0(sp)
        stw   r1,   8(sp)
   80028:	d8400215 	stw	at,8(sp)
        stw   r2,  12(sp)
   8002c:	d8800315 	stw	r2,12(sp)
        stw   r3,  16(sp)
   80030:	d8c00415 	stw	r3,16(sp)
        stw   r4,  20(sp)
   80034:	d9000515 	stw	r4,20(sp)
        stw   r5,  24(sp)
   80038:	d9400615 	stw	r5,24(sp)
        stw   r6,  28(sp)
   8003c:	d9800715 	stw	r6,28(sp)
        stw   r7,  32(sp)
   80040:	d9c00815 	stw	r7,32(sp)
        rdctl r5, estatus   /* Read early to avoid usage stall */
   80044:	000b307a 	rdctl	r5,estatus
        stw   r8,  36(sp)
   80048:	da000915 	stw	r8,36(sp)
        stw   r9,  40(sp)
   8004c:	da400a15 	stw	r9,40(sp)
        stw   r10, 44(sp)
   80050:	da800b15 	stw	r10,44(sp)
        stw   r11, 48(sp)
   80054:	dac00c15 	stw	r11,48(sp)
        stw   r12, 52(sp)
   80058:	db000d15 	stw	r12,52(sp)
        stw   r13, 56(sp)
   8005c:	db400e15 	stw	r13,56(sp)
        stw   r14, 60(sp)
   80060:	db800f15 	stw	r14,60(sp)
        stw   r15, 64(sp)
   80064:	dbc01015 	stw	r15,64(sp)
        /*
         * ea-4 contains the address of the instruction being executed
         * when the exception occured. For interrupt exceptions, we will
         * will be re-issue the isntruction. Store it in 72(sp)
         */
        stw   r5,  68(sp)  /* estatus */
   80068:	d9401115 	stw	r5,68(sp)
        addi  r15, ea, -4  /* instruction that caused exception */
   8006c:	ebffff04 	addi	r15,ea,-4
        stw   r15,  72(sp)
   80070:	dbc01215 	stw	r15,72(sp)
#else
        /*
         * Test to see if the exception was a software exception or caused 
         * by an external interrupt, and vector accordingly.
         */
        rdctl r4, ipending
   80074:	0009313a 	rdctl	r4,ipending
        andi  r2, r5, 1
   80078:	2880004c 	andi	r2,r5,1
        beq   r2, zero, .Lnot_irq
   8007c:	10000326 	beq	r2,zero,8008c <alt_exception+0x6c>
        beq   r4, zero, .Lnot_irq
   80080:	20000226 	beq	r4,zero,8008c <alt_exception+0x6c>
        /*
         * Now that all necessary registers have been preserved, call 
         * alt_irq_handler() to process the interrupts.
         */

        call alt_irq_handler
   80084:	00800ec0 	call	800ec <alt_irq_handler>

        .section .exceptions.irqreturn, "xa"

        br    .Lexception_exit
   80088:	00000306 	br	80098 <alt_exception_unknown+0x4>
         * upon completion, so we write ea (address of instruction *after*
         * the one where the exception occured) into 72(sp). The actual
         * instruction that caused the exception is written in r2, which these
         * handlers will utilize.
         */
        stw   ea,  72(sp)  /* Don't re-issue */
   8008c:	df401215 	stw	ea,72(sp)
        ldw   r2, -4(ea)   /* Instruction that caused exception */
   80090:	e8bfff17 	ldw	r2,-4(ea)

00080094 <alt_exception_unknown>:
#ifdef NIOS2_HAS_DEBUG_STUB
       /*
        *  Either tell the user now (if there is a debugger attached) or go into
        *  the debug monitor which will loop until a debugger is attached.
        */
        break
   80094:	003da03a 	break	0
        /* 
         * Restore the saved registers, so that all general purpose registers 
         * have been restored to their state at the time the interrupt occured.
         */

        ldw   r5,  68(sp)
   80098:	d9401117 	ldw	r5,68(sp)
        ldw   ea,  72(sp)  /* This becomes the PC once eret is executed */
   8009c:	df401217 	ldw	ea,72(sp)
        ldw   ra,   0(sp)
   800a0:	dfc00017 	ldw	ra,0(sp)

        wrctl estatus, r5
   800a4:	2801707a 	wrctl	estatus,r5

        ldw   r1,   8(sp)
   800a8:	d8400217 	ldw	at,8(sp)
        ldw   r2,  12(sp)
   800ac:	d8800317 	ldw	r2,12(sp)
        ldw   r3,  16(sp)
   800b0:	d8c00417 	ldw	r3,16(sp)
        ldw   r4,  20(sp)
   800b4:	d9000517 	ldw	r4,20(sp)
        ldw   r5,  24(sp)
   800b8:	d9400617 	ldw	r5,24(sp)
        ldw   r6,  28(sp)
   800bc:	d9800717 	ldw	r6,28(sp)
        ldw   r7,  32(sp)
   800c0:	d9c00817 	ldw	r7,32(sp)

#if defined(ALT_EXCEPTION_STACK) && defined(ALT_STACK_CHECK)
        ldw   et, %gprel(alt_exception_old_stack_limit)(gp)
#endif

        ldw   r8,  36(sp)
   800c4:	da000917 	ldw	r8,36(sp)
        ldw   r9,  40(sp)
   800c8:	da400a17 	ldw	r9,40(sp)
        ldw   r10, 44(sp)
   800cc:	da800b17 	ldw	r10,44(sp)
        ldw   r11, 48(sp)
   800d0:	dac00c17 	ldw	r11,48(sp)
        ldw   r12, 52(sp)
   800d4:	db000d17 	ldw	r12,52(sp)
        ldw   r13, 56(sp)
   800d8:	db400e17 	ldw	r13,56(sp)
        ldw   r14, 60(sp)
   800dc:	db800f17 	ldw	r14,60(sp)
        ldw   r15, 64(sp)
   800e0:	dbc01017 	ldw	r15,64(sp)
        stw   et, %gprel(alt_stack_limit_value)(gp)
        stw   zero, %gprel(alt_exception_old_stack_limit)(gp)
#endif /* ALT_STACK_CHECK */
        ldw   sp,  76(sp)
#else /* ALT_EXCEPTION_STACK disabled */
        addi  sp, sp, 76
   800e4:	dec01304 	addi	sp,sp,76

        /*
         * Return to the interrupted instruction.
         */

        eret
   800e8:	ef80083a 	eret

000800ec <alt_irq_handler>:
 * instruction is present if the macro ALT_CI_INTERRUPT_VECTOR defined.
 */

void alt_irq_handler (void) __attribute__ ((section (".exceptions")));
void alt_irq_handler (void)
{
   800ec:	defff904 	addi	sp,sp,-28
   800f0:	dfc00615 	stw	ra,24(sp)
   800f4:	df000515 	stw	fp,20(sp)
   800f8:	df000504 	addi	fp,sp,20
  
  /*
   * Notify the operating system that we are at interrupt level.
   */ 
  
  ALT_OS_INT_ENTER();
   800fc:	0001883a 	nop
#ifndef NIOS2_EIC_PRESENT
static ALT_INLINE alt_u32 ALT_ALWAYS_INLINE alt_irq_pending (void)
{
  alt_u32 active;

  NIOS2_READ_IPENDING (active);
   80100:	0005313a 	rdctl	r2,ipending
   80104:	e0bffe15 	stw	r2,-8(fp)

  return active;
   80108:	e0bffe17 	ldw	r2,-8(fp)
   * Consider the case where the high priority interupt is asserted during
   * the interrupt entry sequence for a lower priority interrupt to see why
   * this is the case.
   */

  active = alt_irq_pending ();
   8010c:	e0bffb15 	stw	r2,-20(fp)

  do
  {
    i = 0;
   80110:	e03ffd15 	stw	zero,-12(fp)
    mask = 1;
   80114:	00800044 	movi	r2,1
   80118:	e0bffc15 	stw	r2,-16(fp)
     * called to clear the interrupt condition.
     */

    do
    {
      if (active & mask)
   8011c:	e0fffb17 	ldw	r3,-20(fp)
   80120:	e0bffc17 	ldw	r2,-16(fp)
   80124:	1884703a 	and	r2,r3,r2
   80128:	10001726 	beq	r2,zero,80188 <alt_irq_handler+0x9c>
      { 
#ifdef ALT_ENHANCED_INTERRUPT_API_PRESENT
        alt_irq[i].handler(alt_irq[i].context); 
   8012c:	00c002f4 	movhi	r3,11
   80130:	18d1f904 	addi	r3,r3,18404
   80134:	e0bffd17 	ldw	r2,-12(fp)
   80138:	100490fa 	slli	r2,r2,3
   8013c:	1885883a 	add	r2,r3,r2
   80140:	10c00017 	ldw	r3,0(r2)
   80144:	010002f4 	movhi	r4,11
   80148:	2111f904 	addi	r4,r4,18404
   8014c:	e0bffd17 	ldw	r2,-12(fp)
   80150:	100490fa 	slli	r2,r2,3
   80154:	2085883a 	add	r2,r4,r2
   80158:	10800104 	addi	r2,r2,4
   8015c:	10800017 	ldw	r2,0(r2)
   80160:	1009883a 	mov	r4,r2
   80164:	183ee83a 	callr	r3
#else
        alt_irq[i].handler(alt_irq[i].context, i); 
#endif
        break;
   80168:	0001883a 	nop
#ifndef NIOS2_EIC_PRESENT
static ALT_INLINE alt_u32 ALT_ALWAYS_INLINE alt_irq_pending (void)
{
  alt_u32 active;

  NIOS2_READ_IPENDING (active);
   8016c:	0005313a 	rdctl	r2,ipending
   80170:	e0bfff15 	stw	r2,-4(fp)

  return active;
   80174:	e0bfff17 	ldw	r2,-4(fp)
      mask <<= 1;
      i++;

    } while (1);

    active = alt_irq_pending ();
   80178:	e0bffb15 	stw	r2,-20(fp)
    
  } while (active);
   8017c:	e0bffb17 	ldw	r2,-20(fp)
   80180:	103fe31e 	bne	r2,zero,80110 <alt_irq_handler+0x24>

  /*
   * Notify the operating system that interrupt processing is complete.
   */ 

  ALT_OS_INT_EXIT();
   80184:	00000706 	br	801a4 <alt_irq_handler+0xb8>
#else
        alt_irq[i].handler(alt_irq[i].context, i); 
#endif
        break;
      }
      mask <<= 1;
   80188:	e0bffc17 	ldw	r2,-16(fp)
   8018c:	1085883a 	add	r2,r2,r2
   80190:	e0bffc15 	stw	r2,-16(fp)
      i++;
   80194:	e0bffd17 	ldw	r2,-12(fp)
   80198:	10800044 	addi	r2,r2,1
   8019c:	e0bffd15 	stw	r2,-12(fp)

    } while (1);
   801a0:	003fde06 	br	8011c <alt_irq_handler+0x30>
  /*
   * Notify the operating system that interrupt processing is complete.
   */ 

  ALT_OS_INT_EXIT();
}
   801a4:	e037883a 	mov	sp,fp
   801a8:	dfc00117 	ldw	ra,4(sp)
   801ac:	df000017 	ldw	fp,0(sp)
   801b0:	dec00204 	addi	sp,sp,8
   801b4:	f800283a 	ret

Disassembly of section .text:

000801b8 <_start>:

    /* Assume the data cache size is always a power of two. */
#if NIOS2_DCACHE_SIZE > 0x8000
    movhi r2, %hi(NIOS2_DCACHE_SIZE)
#else
    movui r2, NIOS2_DCACHE_SIZE
   801b8:	00820014 	movui	r2,2048
#endif

0:
    initd 0(r2)
   801bc:	10000033 	initd	0(r2)
#ifdef NIOS2_ECC_PRESENT
    addi r2, r2, -4
#else
    addi r2, r2, -NIOS2_DCACHE_LINE_SIZE
   801c0:	10bff804 	addi	r2,r2,-32
#endif
    bgt r2, zero, 0b
   801c4:	00bffd16 	blt	zero,r2,801bc <_start+0x4>

    /*
     * Now that the caches are initialized, set up the stack pointer and global pointer.
     * The values provided by the linker are assumed to be correctly aligned.
     */
    movhi sp, %hi(__alt_stack_pointer)
   801c8:	06c00334 	movhi	sp,12
    ori sp, sp, %lo(__alt_stack_pointer)
   801cc:	ded17014 	ori	sp,sp,17856
    movhi gp, %hi(_gp)
   801d0:	068002f4 	movhi	gp,11
    ori gp, gp, %lo(_gp)
   801d4:	d6a44b14 	ori	gp,gp,37164
 */
#ifndef ALT_SIM_OPTIMIZE
    /* Log that the BSS is about to be cleared. */
    ALT_LOG_PUTS(alt_log_msg_bss)

    movhi r2, %hi(__bss_start)
   801d8:	008002f4 	movhi	r2,11
    ori r2, r2, %lo(__bss_start)
   801dc:	1091e114 	ori	r2,r2,18308

    movhi r3, %hi(__bss_end)
   801e0:	00c002f4 	movhi	r3,11
    ori r3, r3, %lo(__bss_end)
   801e4:	18d29d14 	ori	r3,r3,19060

    beq r2, r3, 1f
   801e8:	10c00326 	beq	r2,r3,801f8 <_start+0x40>

0:
    stw zero, (r2)
   801ec:	10000015 	stw	zero,0(r2)
    addi r2, r2, 4
   801f0:	10800104 	addi	r2,r2,4
    bltu r2, r3, 0b
   801f4:	10fffd36 	bltu	r2,r3,801ec <_start+0x34>
     * section aren't defined until alt_load() has been called).
     */
    mov   et, zero
#endif

    call alt_load
   801f8:	009142c0 	call	9142c <alt_load>

    /* Log that alt_main is about to be called. */
    ALT_LOG_PUTS(alt_log_msg_alt_main)

    /* Call the C entry point. It should never return. */
    call alt_main
   801fc:	00915cc0 	call	915cc <alt_main>

00080200 <alt_after_alt_main>:

    /* Wait in infinite loop in case alt_main does return. */
alt_after_alt_main:
    br alt_after_alt_main
   80200:	003fff06 	br	80200 <alt_after_alt_main>

00080204 <IsPtInRect>:

//#define BOUND(x, mini, maxi) ((x<(mini)?(mini):( (x>(maxi))?(maxi):(x) )))

//#define COPY_POINT(pt_des, pt_src)  memcpy(&pt_des, &pt_src,sizeof(POINT))

bool IsPtInRect(POINT *pt, RECT *rc){
   80204:	defffc04 	addi	sp,sp,-16
   80208:	df000315 	stw	fp,12(sp)
   8020c:	df000304 	addi	fp,sp,12
   80210:	e13ffe15 	stw	r4,-8(fp)
   80214:	e17fff15 	stw	r5,-4(fp)
    bool bYes = FALSE;
   80218:	e03ffd15 	stw	zero,-12(fp)
    
    if (pt->x >= rc->left && pt->x <= rc->right && pt->y >= rc->top && pt->y <= rc->bottom)
   8021c:	e0bffe17 	ldw	r2,-8(fp)
   80220:	10c00017 	ldw	r3,0(r2)
   80224:	e0bfff17 	ldw	r2,-4(fp)
   80228:	10800017 	ldw	r2,0(r2)
   8022c:	18801116 	blt	r3,r2,80274 <IsPtInRect+0x70>
   80230:	e0bffe17 	ldw	r2,-8(fp)
   80234:	10800017 	ldw	r2,0(r2)
   80238:	e0ffff17 	ldw	r3,-4(fp)
   8023c:	18c00117 	ldw	r3,4(r3)
   80240:	18800c16 	blt	r3,r2,80274 <IsPtInRect+0x70>
   80244:	e0bffe17 	ldw	r2,-8(fp)
   80248:	10c00117 	ldw	r3,4(r2)
   8024c:	e0bfff17 	ldw	r2,-4(fp)
   80250:	10800217 	ldw	r2,8(r2)
   80254:	18800716 	blt	r3,r2,80274 <IsPtInRect+0x70>
   80258:	e0bffe17 	ldw	r2,-8(fp)
   8025c:	10800117 	ldw	r2,4(r2)
   80260:	e0ffff17 	ldw	r3,-4(fp)
   80264:	18c00317 	ldw	r3,12(r3)
   80268:	18800216 	blt	r3,r2,80274 <IsPtInRect+0x70>
        bYes = TRUE;
   8026c:	00800044 	movi	r2,1
   80270:	e0bffd15 	stw	r2,-12(fp)
    
    return bYes;
   80274:	e0bffd17 	ldw	r2,-12(fp)
}
   80278:	e037883a 	mov	sp,fp
   8027c:	df000017 	ldw	fp,0(sp)
   80280:	dec00104 	addi	sp,sp,4
   80284:	f800283a 	ret

00080288 <PtSet>:

void PtSet(POINT *pt, int x, int y){
   80288:	defffc04 	addi	sp,sp,-16
   8028c:	df000315 	stw	fp,12(sp)
   80290:	df000304 	addi	fp,sp,12
   80294:	e13ffd15 	stw	r4,-12(fp)
   80298:	e17ffe15 	stw	r5,-8(fp)
   8029c:	e1bfff15 	stw	r6,-4(fp)
    pt->x = x;
   802a0:	e0bffd17 	ldw	r2,-12(fp)
   802a4:	e0fffe17 	ldw	r3,-8(fp)
   802a8:	10c00015 	stw	r3,0(r2)
    pt->y = y;
   802ac:	e0bffd17 	ldw	r2,-12(fp)
   802b0:	e0ffff17 	ldw	r3,-4(fp)
   802b4:	10c00115 	stw	r3,4(r2)
}
   802b8:	e037883a 	mov	sp,fp
   802bc:	df000017 	ldw	fp,0(sp)
   802c0:	dec00104 	addi	sp,sp,4
   802c4:	f800283a 	ret

000802c8 <RectSet>:

void RectSet(RECT *rc, int left, int right, int top, int bottom){
   802c8:	defffb04 	addi	sp,sp,-20
   802cc:	df000415 	stw	fp,16(sp)
   802d0:	df000404 	addi	fp,sp,16
   802d4:	e13ffc15 	stw	r4,-16(fp)
   802d8:	e17ffd15 	stw	r5,-12(fp)
   802dc:	e1bffe15 	stw	r6,-8(fp)
   802e0:	e1ffff15 	stw	r7,-4(fp)
    rc->left = left;
   802e4:	e0bffc17 	ldw	r2,-16(fp)
   802e8:	e0fffd17 	ldw	r3,-12(fp)
   802ec:	10c00015 	stw	r3,0(r2)
    rc->right = right;
   802f0:	e0bffc17 	ldw	r2,-16(fp)
   802f4:	e0fffe17 	ldw	r3,-8(fp)
   802f8:	10c00115 	stw	r3,4(r2)
    rc->top = top;
   802fc:	e0bffc17 	ldw	r2,-16(fp)
   80300:	e0ffff17 	ldw	r3,-4(fp)
   80304:	10c00215 	stw	r3,8(r2)
    rc->bottom = bottom;
   80308:	e0bffc17 	ldw	r2,-16(fp)
   8030c:	e0c00117 	ldw	r3,4(fp)
   80310:	10c00315 	stw	r3,12(r2)
}
   80314:	e037883a 	mov	sp,fp
   80318:	df000017 	ldw	fp,0(sp)
   8031c:	dec00104 	addi	sp,sp,4
   80320:	f800283a 	ret

00080324 <RectInflate>:

void RectInflate(RECT *rc, int x, int y){
   80324:	defffc04 	addi	sp,sp,-16
   80328:	df000315 	stw	fp,12(sp)
   8032c:	df000304 	addi	fp,sp,12
   80330:	e13ffd15 	stw	r4,-12(fp)
   80334:	e17ffe15 	stw	r5,-8(fp)
   80338:	e1bfff15 	stw	r6,-4(fp)
    rc->left -= x;
   8033c:	e0bffd17 	ldw	r2,-12(fp)
   80340:	10c00017 	ldw	r3,0(r2)
   80344:	e0bffe17 	ldw	r2,-8(fp)
   80348:	1887c83a 	sub	r3,r3,r2
   8034c:	e0bffd17 	ldw	r2,-12(fp)
   80350:	10c00015 	stw	r3,0(r2)
    rc->right += x;
   80354:	e0bffd17 	ldw	r2,-12(fp)
   80358:	10c00117 	ldw	r3,4(r2)
   8035c:	e0bffe17 	ldw	r2,-8(fp)
   80360:	1887883a 	add	r3,r3,r2
   80364:	e0bffd17 	ldw	r2,-12(fp)
   80368:	10c00115 	stw	r3,4(r2)
    rc->top -= y;
   8036c:	e0bffd17 	ldw	r2,-12(fp)
   80370:	10c00217 	ldw	r3,8(r2)
   80374:	e0bfff17 	ldw	r2,-4(fp)
   80378:	1887c83a 	sub	r3,r3,r2
   8037c:	e0bffd17 	ldw	r2,-12(fp)
   80380:	10c00215 	stw	r3,8(r2)
    rc->bottom += y;
   80384:	e0bffd17 	ldw	r2,-12(fp)
   80388:	10c00317 	ldw	r3,12(r2)
   8038c:	e0bfff17 	ldw	r2,-4(fp)
   80390:	1887883a 	add	r3,r3,r2
   80394:	e0bffd17 	ldw	r2,-12(fp)
   80398:	10c00315 	stw	r3,12(r2)
}
   8039c:	e037883a 	mov	sp,fp
   803a0:	df000017 	ldw	fp,0(sp)
   803a4:	dec00104 	addi	sp,sp,4
   803a8:	f800283a 	ret

000803ac <RectOffset>:

void RectOffset(RECT *rc, int x, int y){
   803ac:	defffc04 	addi	sp,sp,-16
   803b0:	df000315 	stw	fp,12(sp)
   803b4:	df000304 	addi	fp,sp,12
   803b8:	e13ffd15 	stw	r4,-12(fp)
   803bc:	e17ffe15 	stw	r5,-8(fp)
   803c0:	e1bfff15 	stw	r6,-4(fp)
    rc->left += x;
   803c4:	e0bffd17 	ldw	r2,-12(fp)
   803c8:	10c00017 	ldw	r3,0(r2)
   803cc:	e0bffe17 	ldw	r2,-8(fp)
   803d0:	1887883a 	add	r3,r3,r2
   803d4:	e0bffd17 	ldw	r2,-12(fp)
   803d8:	10c00015 	stw	r3,0(r2)
    rc->right += x;
   803dc:	e0bffd17 	ldw	r2,-12(fp)
   803e0:	10c00117 	ldw	r3,4(r2)
   803e4:	e0bffe17 	ldw	r2,-8(fp)
   803e8:	1887883a 	add	r3,r3,r2
   803ec:	e0bffd17 	ldw	r2,-12(fp)
   803f0:	10c00115 	stw	r3,4(r2)
    rc->top += y;
   803f4:	e0bffd17 	ldw	r2,-12(fp)
   803f8:	10c00217 	ldw	r3,8(r2)
   803fc:	e0bfff17 	ldw	r2,-4(fp)
   80400:	1887883a 	add	r3,r3,r2
   80404:	e0bffd17 	ldw	r2,-12(fp)
   80408:	10c00215 	stw	r3,8(r2)
    rc->bottom += y;
   8040c:	e0bffd17 	ldw	r2,-12(fp)
   80410:	10c00317 	ldw	r3,12(r2)
   80414:	e0bfff17 	ldw	r2,-4(fp)
   80418:	1887883a 	add	r3,r3,r2
   8041c:	e0bffd17 	ldw	r2,-12(fp)
   80420:	10c00315 	stw	r3,12(r2)
}
   80424:	e037883a 	mov	sp,fp
   80428:	df000017 	ldw	fp,0(sp)
   8042c:	dec00104 	addi	sp,sp,4
   80430:	f800283a 	ret

00080434 <RectCopy>:

void RectCopy(RECT *rcDes, RECT *rcSrc){
   80434:	defffd04 	addi	sp,sp,-12
   80438:	df000215 	stw	fp,8(sp)
   8043c:	df000204 	addi	fp,sp,8
   80440:	e13ffe15 	stw	r4,-8(fp)
   80444:	e17fff15 	stw	r5,-4(fp)
    rcDes->left = rcSrc->left;
   80448:	e0bfff17 	ldw	r2,-4(fp)
   8044c:	10c00017 	ldw	r3,0(r2)
   80450:	e0bffe17 	ldw	r2,-8(fp)
   80454:	10c00015 	stw	r3,0(r2)
    rcDes->right = rcSrc->right;
   80458:	e0bfff17 	ldw	r2,-4(fp)
   8045c:	10c00117 	ldw	r3,4(r2)
   80460:	e0bffe17 	ldw	r2,-8(fp)
   80464:	10c00115 	stw	r3,4(r2)
    rcDes->top = rcSrc->top;
   80468:	e0bfff17 	ldw	r2,-4(fp)
   8046c:	10c00217 	ldw	r3,8(r2)
   80470:	e0bffe17 	ldw	r2,-8(fp)
   80474:	10c00215 	stw	r3,8(r2)
    rcDes->bottom = rcSrc->bottom;
   80478:	e0bfff17 	ldw	r2,-4(fp)
   8047c:	10c00317 	ldw	r3,12(r2)
   80480:	e0bffe17 	ldw	r2,-8(fp)
   80484:	10c00315 	stw	r3,12(r2)
}
   80488:	e037883a 	mov	sp,fp
   8048c:	df000017 	ldw	fp,0(sp)
   80490:	dec00104 	addi	sp,sp,4
   80494:	f800283a 	ret

00080498 <RectWidth>:

int RectWidth(RECT *rc){
   80498:	defffe04 	addi	sp,sp,-8
   8049c:	df000115 	stw	fp,4(sp)
   804a0:	df000104 	addi	fp,sp,4
   804a4:	e13fff15 	stw	r4,-4(fp)
    return (rc->right-rc->left);
   804a8:	e0bfff17 	ldw	r2,-4(fp)
   804ac:	10c00117 	ldw	r3,4(r2)
   804b0:	e0bfff17 	ldw	r2,-4(fp)
   804b4:	10800017 	ldw	r2,0(r2)
   804b8:	1885c83a 	sub	r2,r3,r2
}
   804bc:	e037883a 	mov	sp,fp
   804c0:	df000017 	ldw	fp,0(sp)
   804c4:	dec00104 	addi	sp,sp,4
   804c8:	f800283a 	ret

000804cc <RectHeight>:

int RectHeight(RECT *rc){
   804cc:	defffe04 	addi	sp,sp,-8
   804d0:	df000115 	stw	fp,4(sp)
   804d4:	df000104 	addi	fp,sp,4
   804d8:	e13fff15 	stw	r4,-4(fp)
    return (rc->bottom-rc->top);
   804dc:	e0bfff17 	ldw	r2,-4(fp)
   804e0:	10c00317 	ldw	r3,12(r2)
   804e4:	e0bfff17 	ldw	r2,-4(fp)
   804e8:	10800217 	ldw	r2,8(r2)
   804ec:	1885c83a 	sub	r2,r3,r2
}
   804f0:	e037883a 	mov	sp,fp
   804f4:	df000017 	ldw	fp,0(sp)
   804f8:	dec00104 	addi	sp,sp,4
   804fc:	f800283a 	ret

00080500 <PtDistance>:

int PtDistance(POINT *pt1, POINT *pt2){
   80500:	defff904 	addi	sp,sp,-28
   80504:	dfc00615 	stw	ra,24(sp)
   80508:	df000515 	stw	fp,20(sp)
   8050c:	df000504 	addi	fp,sp,20
   80510:	e13ffe15 	stw	r4,-8(fp)
   80514:	e17fff15 	stw	r5,-4(fp)
    int nDistance;
    int a, b;
    a = pt1->x - pt2->x;
   80518:	e0bffe17 	ldw	r2,-8(fp)
   8051c:	10c00017 	ldw	r3,0(r2)
   80520:	e0bfff17 	ldw	r2,-4(fp)
   80524:	10800017 	ldw	r2,0(r2)
   80528:	1885c83a 	sub	r2,r3,r2
   8052c:	e0bffb15 	stw	r2,-20(fp)
    b = pt1->y - pt2->y;
   80530:	e0bffe17 	ldw	r2,-8(fp)
   80534:	10c00117 	ldw	r3,4(r2)
   80538:	e0bfff17 	ldw	r2,-4(fp)
   8053c:	10800117 	ldw	r2,4(r2)
   80540:	1885c83a 	sub	r2,r3,r2
   80544:	e0bffc15 	stw	r2,-16(fp)
    nDistance = a*a + b*b;
   80548:	e0fffb17 	ldw	r3,-20(fp)
   8054c:	e0bffb17 	ldw	r2,-20(fp)
   80550:	1887383a 	mul	r3,r3,r2
   80554:	e13ffc17 	ldw	r4,-16(fp)
   80558:	e0bffc17 	ldw	r2,-16(fp)
   8055c:	2085383a 	mul	r2,r4,r2
   80560:	1885883a 	add	r2,r3,r2
   80564:	e0bffd15 	stw	r2,-12(fp)
    nDistance = sqrt(nDistance);
   80568:	e13ffd17 	ldw	r4,-12(fp)
   8056c:	00880640 	call	88064 <__floatsidf>
   80570:	100b883a 	mov	r5,r2
   80574:	180d883a 	mov	r6,r3
   80578:	2809883a 	mov	r4,r5
   8057c:	300b883a 	mov	r5,r6
   80580:	00873280 	call	87328 <sqrt>
   80584:	100b883a 	mov	r5,r2
   80588:	180d883a 	mov	r6,r3
   8058c:	2809883a 	mov	r4,r5
   80590:	300b883a 	mov	r5,r6
   80594:	00881380 	call	88138 <__fixdfsi>
   80598:	e0bffd15 	stw	r2,-12(fp)
    
    return nDistance;
   8059c:	e0bffd17 	ldw	r2,-12(fp)
}
   805a0:	e037883a 	mov	sp,fp
   805a4:	dfc00117 	ldw	ra,4(sp)
   805a8:	df000017 	ldw	fp,0(sp)
   805ac:	dec00204 	addi	sp,sp,8
   805b0:	f800283a 	ret

000805b4 <PtCopy>:

void PtCopy(POINT *ptDes, POINT *ptSrc){
   805b4:	defffd04 	addi	sp,sp,-12
   805b8:	df000215 	stw	fp,8(sp)
   805bc:	df000204 	addi	fp,sp,8
   805c0:	e13ffe15 	stw	r4,-8(fp)
   805c4:	e17fff15 	stw	r5,-4(fp)
    ptDes->x = ptSrc->x;
   805c8:	e0bfff17 	ldw	r2,-4(fp)
   805cc:	10c00017 	ldw	r3,0(r2)
   805d0:	e0bffe17 	ldw	r2,-8(fp)
   805d4:	10c00015 	stw	r3,0(r2)
    ptDes->y = ptSrc->y;
   805d8:	e0bfff17 	ldw	r2,-4(fp)
   805dc:	10c00117 	ldw	r3,4(r2)
   805e0:	e0bffe17 	ldw	r2,-8(fp)
   805e4:	10c00115 	stw	r3,4(r2)
}
   805e8:	e037883a 	mov	sp,fp
   805ec:	df000017 	ldw	fp,0(sp)
   805f0:	dec00104 	addi	sp,sp,4
   805f4:	f800283a 	ret

000805f8 <Delay_Ms>:
#define BLUE 0x001f
#define BLACK  0x0000
#define WHITE 0xffff

void Delay_Ms(alt_u16 count_ms)
{
   805f8:	defffd04 	addi	sp,sp,-12
   805fc:	dfc00215 	stw	ra,8(sp)
   80600:	df000115 	stw	fp,4(sp)
   80604:	df000104 	addi	fp,sp,4
   80608:	2005883a 	mov	r2,r4
   8060c:	e0bfff0d 	sth	r2,-4(fp)
    while(count_ms--)
   80610:	00000206 	br	8061c <Delay_Ms+0x24>
    {
        usleep(1000);
   80614:	0100fa04 	movi	r4,1000
   80618:	0091a700 	call	91a70 <usleep>
#define BLACK  0x0000
#define WHITE 0xffff

void Delay_Ms(alt_u16 count_ms)
{
    while(count_ms--)
   8061c:	e0bfff0b 	ldhu	r2,-4(fp)
   80620:	1004c03a 	cmpne	r2,r2,zero
   80624:	e0ffff0b 	ldhu	r3,-4(fp)
   80628:	18ffffc4 	addi	r3,r3,-1
   8062c:	e0ffff0d 	sth	r3,-4(fp)
   80630:	10803fcc 	andi	r2,r2,255
   80634:	103ff71e 	bne	r2,zero,80614 <Delay_Ms+0x1c>
    {
        usleep(1000);
    }
}
   80638:	e037883a 	mov	sp,fp
   8063c:	dfc00117 	ldw	ra,4(sp)
   80640:	df000017 	ldw	fp,0(sp)
   80644:	dec00204 	addi	sp,sp,8
   80648:	f800283a 	ret

0008064c <LCD_SetCursor>:


void LCD_SetCursor(alt_u16 Xpos, alt_u16 Ypos)
{
   8064c:	defffd04 	addi	sp,sp,-12
   80650:	df000215 	stw	fp,8(sp)
   80654:	df000204 	addi	fp,sp,8
   80658:	2007883a 	mov	r3,r4
   8065c:	2805883a 	mov	r2,r5
   80660:	e0fffe0d 	sth	r3,-8(fp)
   80664:	e0bfff0d 	sth	r2,-4(fp)
	 LCD_WR_REG(0x002A);
   80668:	00c00a84 	movi	r3,42
   8066c:	00800434 	movhi	r2,16
   80670:	10842604 	addi	r2,r2,4248
   80674:	10c00035 	stwio	r3,0(r2)
		 LCD_WR_DATA(Xpos>>8);
   80678:	e0bffe0b 	ldhu	r2,-8(fp)
   8067c:	1004d23a 	srli	r2,r2,8
   80680:	10ffffcc 	andi	r3,r2,65535
   80684:	00800434 	movhi	r2,16
   80688:	10842704 	addi	r2,r2,4252
   8068c:	10c00035 	stwio	r3,0(r2)
		 LCD_WR_DATA(Xpos&0XFF);
   80690:	e0bffe0b 	ldhu	r2,-8(fp)
   80694:	10c03fcc 	andi	r3,r2,255
   80698:	00800434 	movhi	r2,16
   8069c:	10842704 	addi	r2,r2,4252
   806a0:	10c00035 	stwio	r3,0(r2)
	 LCD_WR_REG(0x002B);
   806a4:	00c00ac4 	movi	r3,43
   806a8:	00800434 	movhi	r2,16
   806ac:	10842604 	addi	r2,r2,4248
   806b0:	10c00035 	stwio	r3,0(r2)
		 LCD_WR_DATA(Ypos>>8);
   806b4:	e0bfff0b 	ldhu	r2,-4(fp)
   806b8:	1004d23a 	srli	r2,r2,8
   806bc:	10ffffcc 	andi	r3,r2,65535
   806c0:	00800434 	movhi	r2,16
   806c4:	10842704 	addi	r2,r2,4252
   806c8:	10c00035 	stwio	r3,0(r2)
		 LCD_WR_DATA(Ypos&0XFF);
   806cc:	e0bfff0b 	ldhu	r2,-4(fp)
   806d0:	10c03fcc 	andi	r3,r2,255
   806d4:	00800434 	movhi	r2,16
   806d8:	10842704 	addi	r2,r2,4252
   806dc:	10c00035 	stwio	r3,0(r2)
	 LCD_WR_REG(0x002C);
   806e0:	00c00b04 	movi	r3,44
   806e4:	00800434 	movhi	r2,16
   806e8:	10842604 	addi	r2,r2,4248
   806ec:	10c00035 	stwio	r3,0(r2)
}
   806f0:	e037883a 	mov	sp,fp
   806f4:	df000017 	ldw	fp,0(sp)
   806f8:	dec00104 	addi	sp,sp,4
   806fc:	f800283a 	ret

00080700 <LCD_Clear>:

void LCD_Clear(alt_u16 Color)
{
   80700:	defffc04 	addi	sp,sp,-16
   80704:	dfc00315 	stw	ra,12(sp)
   80708:	df000215 	stw	fp,8(sp)
   8070c:	df000204 	addi	fp,sp,8
   80710:	2005883a 	mov	r2,r4
   80714:	e0bfff0d 	sth	r2,-4(fp)
        alt_u32 index=0;
   80718:	e03ffe15 	stw	zero,-8(fp)
        LCD_SetCursor(0x00,0x0000);
   8071c:	0009883a 	mov	r4,zero
   80720:	000b883a 	mov	r5,zero
   80724:	008064c0 	call	8064c <LCD_SetCursor>
        LCD_WR_REG(0x002C);
   80728:	00c00b04 	movi	r3,44
   8072c:	00800434 	movhi	r2,16
   80730:	10842604 	addi	r2,r2,4248
   80734:	10c00035 	stwio	r3,0(r2)
        for(index=0;index<76800;index++)
   80738:	e03ffe15 	stw	zero,-8(fp)
   8073c:	00000706 	br	8075c <LCD_Clear+0x5c>
        {
        	LCD_WR_DATA(Color);
   80740:	e0ffff0b 	ldhu	r3,-4(fp)
   80744:	00800434 	movhi	r2,16
   80748:	10842704 	addi	r2,r2,4252
   8074c:	10c00035 	stwio	r3,0(r2)
void LCD_Clear(alt_u16 Color)
{
        alt_u32 index=0;
        LCD_SetCursor(0x00,0x0000);
        LCD_WR_REG(0x002C);
        for(index=0;index<76800;index++)
   80750:	e0bffe17 	ldw	r2,-8(fp)
   80754:	10800044 	addi	r2,r2,1
   80758:	e0bffe15 	stw	r2,-8(fp)
   8075c:	e0bffe17 	ldw	r2,-8(fp)
   80760:	00c00074 	movhi	r3,1
   80764:	18caffc4 	addi	r3,r3,11263
   80768:	18bff52e 	bgeu	r3,r2,80740 <LCD_Clear+0x40>
        {
        	LCD_WR_DATA(Color);
        }
}
   8076c:	e037883a 	mov	sp,fp
   80770:	dfc00117 	ldw	ra,4(sp)
   80774:	df000017 	ldw	fp,0(sp)
   80778:	dec00204 	addi	sp,sp,8
   8077c:	f800283a 	ret

00080780 <LCD_DrawPoint>:

void LCD_DrawPoint(alt_u16 x,alt_u16 y,alt_u16 color )
{
   80780:	defffb04 	addi	sp,sp,-20
   80784:	dfc00415 	stw	ra,16(sp)
   80788:	df000315 	stw	fp,12(sp)
   8078c:	df000304 	addi	fp,sp,12
   80790:	2807883a 	mov	r3,r5
   80794:	3005883a 	mov	r2,r6
   80798:	e13ffd0d 	sth	r4,-12(fp)
   8079c:	e0fffe0d 	sth	r3,-8(fp)
   807a0:	e0bfff0d 	sth	r2,-4(fp)
        LCD_SetCursor(x,y);
   807a4:	e0fffd0b 	ldhu	r3,-12(fp)
   807a8:	e0bffe0b 	ldhu	r2,-8(fp)
   807ac:	1809883a 	mov	r4,r3
   807b0:	100b883a 	mov	r5,r2
   807b4:	008064c0 	call	8064c <LCD_SetCursor>
        LCD_WR_REG(0x002C);
   807b8:	00c00b04 	movi	r3,44
   807bc:	00800434 	movhi	r2,16
   807c0:	10842604 	addi	r2,r2,4248
   807c4:	10c00035 	stwio	r3,0(r2)
        LCD_WR_DATA(color);
   807c8:	e0ffff0b 	ldhu	r3,-4(fp)
   807cc:	00800434 	movhi	r2,16
   807d0:	10842704 	addi	r2,r2,4252
   807d4:	10c00035 	stwio	r3,0(r2)
}
   807d8:	e037883a 	mov	sp,fp
   807dc:	dfc00117 	ldw	ra,4(sp)
   807e0:	df000017 	ldw	fp,0(sp)
   807e4:	dec00204 	addi	sp,sp,8
   807e8:	f800283a 	ret

000807ec <LCD_Init>:
void LCD_Init()
{
   807ec:	defffe04 	addi	sp,sp,-8
   807f0:	dfc00115 	stw	ra,4(sp)
   807f4:	df000015 	stw	fp,0(sp)
   807f8:	d839883a 	mov	fp,sp
	alt_u16 data1,data2;
	alt_u16 data3,data4;
	Set_LCD_RST;
   807fc:	00c00044 	movi	r3,1
   80800:	00800434 	movhi	r2,16
   80804:	10842004 	addi	r2,r2,4224
   80808:	10c00035 	stwio	r3,0(r2)
	Delay_Ms(1);
   8080c:	01000044 	movi	r4,1
   80810:	00805f80 	call	805f8 <Delay_Ms>
	Clr_LCD_RST;
   80814:	0007883a 	mov	r3,zero
   80818:	00800434 	movhi	r2,16
   8081c:	10842004 	addi	r2,r2,4224
   80820:	10c00035 	stwio	r3,0(r2)
	Delay_Ms(10);       // Delay 10ms // This delay time is necessary
   80824:	01000284 	movi	r4,10
   80828:	00805f80 	call	805f8 <Delay_Ms>
	Set_LCD_RST;
   8082c:	00c00044 	movi	r3,1
   80830:	00800434 	movhi	r2,16
   80834:	10842004 	addi	r2,r2,4224
   80838:	10c00035 	stwio	r3,0(r2)
	Delay_Ms(120);       // Delay 120 ms
   8083c:	01001e04 	movi	r4,120
   80840:	00805f80 	call	805f8 <Delay_Ms>
//	Clr_LCD_CS;



	LCD_WR_REG(0x0011); //Exit Sleep
   80844:	00c00444 	movi	r3,17
   80848:	00800434 	movhi	r2,16
   8084c:	10842604 	addi	r2,r2,4248
   80850:	10c00035 	stwio	r3,0(r2)
	LCD_WR_REG(0x00CF);
   80854:	00c033c4 	movi	r3,207
   80858:	00800434 	movhi	r2,16
   8085c:	10842604 	addi	r2,r2,4248
   80860:	10c00035 	stwio	r3,0(r2)
		LCD_WR_DATA(0x0000);
   80864:	0007883a 	mov	r3,zero
   80868:	00800434 	movhi	r2,16
   8086c:	10842704 	addi	r2,r2,4252
   80870:	10c00035 	stwio	r3,0(r2)
		LCD_WR_DATA(0x0081);
   80874:	00c02044 	movi	r3,129
   80878:	00800434 	movhi	r2,16
   8087c:	10842704 	addi	r2,r2,4252
   80880:	10c00035 	stwio	r3,0(r2)
		LCD_WR_DATA(0X00c0);
   80884:	00c03004 	movi	r3,192
   80888:	00800434 	movhi	r2,16
   8088c:	10842704 	addi	r2,r2,4252
   80890:	10c00035 	stwio	r3,0(r2)

	LCD_WR_REG(0x00ED);
   80894:	00c03b44 	movi	r3,237
   80898:	00800434 	movhi	r2,16
   8089c:	10842604 	addi	r2,r2,4248
   808a0:	10c00035 	stwio	r3,0(r2)
		LCD_WR_DATA(0x0064);
   808a4:	00c01904 	movi	r3,100
   808a8:	00800434 	movhi	r2,16
   808ac:	10842704 	addi	r2,r2,4252
   808b0:	10c00035 	stwio	r3,0(r2)
		LCD_WR_DATA(0x0003);
   808b4:	00c000c4 	movi	r3,3
   808b8:	00800434 	movhi	r2,16
   808bc:	10842704 	addi	r2,r2,4252
   808c0:	10c00035 	stwio	r3,0(r2)
		LCD_WR_DATA(0X0012);
   808c4:	00c00484 	movi	r3,18
   808c8:	00800434 	movhi	r2,16
   808cc:	10842704 	addi	r2,r2,4252
   808d0:	10c00035 	stwio	r3,0(r2)
		LCD_WR_DATA(0X0081);
   808d4:	00c02044 	movi	r3,129
   808d8:	00800434 	movhi	r2,16
   808dc:	10842704 	addi	r2,r2,4252
   808e0:	10c00035 	stwio	r3,0(r2)

	LCD_WR_REG(0x00E8);
   808e4:	00c03a04 	movi	r3,232
   808e8:	00800434 	movhi	r2,16
   808ec:	10842604 	addi	r2,r2,4248
   808f0:	10c00035 	stwio	r3,0(r2)
		LCD_WR_DATA(0x0085);
   808f4:	00c02144 	movi	r3,133
   808f8:	00800434 	movhi	r2,16
   808fc:	10842704 	addi	r2,r2,4252
   80900:	10c00035 	stwio	r3,0(r2)
		LCD_WR_DATA(0x0001);
   80904:	00c00044 	movi	r3,1
   80908:	00800434 	movhi	r2,16
   8090c:	10842704 	addi	r2,r2,4252
   80910:	10c00035 	stwio	r3,0(r2)
		LCD_WR_DATA(0x00798);
   80914:	00c1e604 	movi	r3,1944
   80918:	00800434 	movhi	r2,16
   8091c:	10842704 	addi	r2,r2,4252
   80920:	10c00035 	stwio	r3,0(r2)

	LCD_WR_REG(0x00CB);
   80924:	00c032c4 	movi	r3,203
   80928:	00800434 	movhi	r2,16
   8092c:	10842604 	addi	r2,r2,4248
   80930:	10c00035 	stwio	r3,0(r2)
		LCD_WR_DATA(0x0039);
   80934:	00c00e44 	movi	r3,57
   80938:	00800434 	movhi	r2,16
   8093c:	10842704 	addi	r2,r2,4252
   80940:	10c00035 	stwio	r3,0(r2)
		LCD_WR_DATA(0x002C);
   80944:	00c00b04 	movi	r3,44
   80948:	00800434 	movhi	r2,16
   8094c:	10842704 	addi	r2,r2,4252
   80950:	10c00035 	stwio	r3,0(r2)
		LCD_WR_DATA(0x0000);
   80954:	0007883a 	mov	r3,zero
   80958:	00800434 	movhi	r2,16
   8095c:	10842704 	addi	r2,r2,4252
   80960:	10c00035 	stwio	r3,0(r2)
		LCD_WR_DATA(0x0034);
   80964:	00c00d04 	movi	r3,52
   80968:	00800434 	movhi	r2,16
   8096c:	10842704 	addi	r2,r2,4252
   80970:	10c00035 	stwio	r3,0(r2)
		LCD_WR_DATA(0x0002);
   80974:	00c00084 	movi	r3,2
   80978:	00800434 	movhi	r2,16
   8097c:	10842704 	addi	r2,r2,4252
   80980:	10c00035 	stwio	r3,0(r2)

	LCD_WR_REG(0x00F7);
   80984:	00c03dc4 	movi	r3,247
   80988:	00800434 	movhi	r2,16
   8098c:	10842604 	addi	r2,r2,4248
   80990:	10c00035 	stwio	r3,0(r2)
		LCD_WR_DATA(0x0020);
   80994:	00c00804 	movi	r3,32
   80998:	00800434 	movhi	r2,16
   8099c:	10842704 	addi	r2,r2,4252
   809a0:	10c00035 	stwio	r3,0(r2)

	LCD_WR_REG(0x00EA);
   809a4:	00c03a84 	movi	r3,234
   809a8:	00800434 	movhi	r2,16
   809ac:	10842604 	addi	r2,r2,4248
   809b0:	10c00035 	stwio	r3,0(r2)
		LCD_WR_DATA(0x0000);
   809b4:	0007883a 	mov	r3,zero
   809b8:	00800434 	movhi	r2,16
   809bc:	10842704 	addi	r2,r2,4252
   809c0:	10c00035 	stwio	r3,0(r2)
		LCD_WR_DATA(0x0000);
   809c4:	0007883a 	mov	r3,zero
   809c8:	00800434 	movhi	r2,16
   809cc:	10842704 	addi	r2,r2,4252
   809d0:	10c00035 	stwio	r3,0(r2)

	LCD_WR_REG(0x00B1);
   809d4:	00c02c44 	movi	r3,177
   809d8:	00800434 	movhi	r2,16
   809dc:	10842604 	addi	r2,r2,4248
   809e0:	10c00035 	stwio	r3,0(r2)
		LCD_WR_DATA(0x0000);
   809e4:	0007883a 	mov	r3,zero
   809e8:	00800434 	movhi	r2,16
   809ec:	10842704 	addi	r2,r2,4252
   809f0:	10c00035 	stwio	r3,0(r2)
		LCD_WR_DATA(0x001b);
   809f4:	00c006c4 	movi	r3,27
   809f8:	00800434 	movhi	r2,16
   809fc:	10842704 	addi	r2,r2,4252
   80a00:	10c00035 	stwio	r3,0(r2)

	LCD_WR_REG(0x00B6);
   80a04:	00c02d84 	movi	r3,182
   80a08:	00800434 	movhi	r2,16
   80a0c:	10842604 	addi	r2,r2,4248
   80a10:	10c00035 	stwio	r3,0(r2)
		LCD_WR_DATA(0x000A);
   80a14:	00c00284 	movi	r3,10
   80a18:	00800434 	movhi	r2,16
   80a1c:	10842704 	addi	r2,r2,4252
   80a20:	10c00035 	stwio	r3,0(r2)
		LCD_WR_DATA(0x00A2);
   80a24:	00c02884 	movi	r3,162
   80a28:	00800434 	movhi	r2,16
   80a2c:	10842704 	addi	r2,r2,4252
   80a30:	10c00035 	stwio	r3,0(r2)

	LCD_WR_REG(0x00C0);    //Power control
   80a34:	00c03004 	movi	r3,192
   80a38:	00800434 	movhi	r2,16
   80a3c:	10842604 	addi	r2,r2,4248
   80a40:	10c00035 	stwio	r3,0(r2)
		LCD_WR_DATA(0x0005);   //VRH[5:0]
   80a44:	00c00144 	movi	r3,5
   80a48:	00800434 	movhi	r2,16
   80a4c:	10842704 	addi	r2,r2,4252
   80a50:	10c00035 	stwio	r3,0(r2)

	LCD_WR_REG(0x00C1);    //Power control
   80a54:	00c03044 	movi	r3,193
   80a58:	00800434 	movhi	r2,16
   80a5c:	10842604 	addi	r2,r2,4248
   80a60:	10c00035 	stwio	r3,0(r2)
		LCD_WR_DATA(0x0011);   //SAP[2:0];BT[3:0]
   80a64:	00c00444 	movi	r3,17
   80a68:	00800434 	movhi	r2,16
   80a6c:	10842704 	addi	r2,r2,4252
   80a70:	10c00035 	stwio	r3,0(r2)

	LCD_WR_REG(0x00C5);    //VCM control
   80a74:	00c03144 	movi	r3,197
   80a78:	00800434 	movhi	r2,16
   80a7c:	10842604 	addi	r2,r2,4248
   80a80:	10c00035 	stwio	r3,0(r2)
		LCD_WR_DATA(0x0045);       //3F
   80a84:	00c01144 	movi	r3,69
   80a88:	00800434 	movhi	r2,16
   80a8c:	10842704 	addi	r2,r2,4252
   80a90:	10c00035 	stwio	r3,0(r2)
		LCD_WR_DATA(0x0045);       //3C
   80a94:	00c01144 	movi	r3,69
   80a98:	00800434 	movhi	r2,16
   80a9c:	10842704 	addi	r2,r2,4252
   80aa0:	10c00035 	stwio	r3,0(r2)

	 LCD_WR_REG(0x00C7);    //VCM control2
   80aa4:	00c031c4 	movi	r3,199
   80aa8:	00800434 	movhi	r2,16
   80aac:	10842604 	addi	r2,r2,4248
   80ab0:	10c00035 	stwio	r3,0(r2)
		 LCD_WR_DATA(0X00a2);
   80ab4:	00c02884 	movi	r3,162
   80ab8:	00800434 	movhi	r2,16
   80abc:	10842704 	addi	r2,r2,4252
   80ac0:	10c00035 	stwio	r3,0(r2)

	LCD_WR_REG(0x0036);    // Memory Access Control
   80ac4:	00c00d84 	movi	r3,54
   80ac8:	00800434 	movhi	r2,16
   80acc:	10842604 	addi	r2,r2,4248
   80ad0:	10c00035 	stwio	r3,0(r2)
		LCD_WR_DATA(0x0008);//48
   80ad4:	00c00204 	movi	r3,8
   80ad8:	00800434 	movhi	r2,16
   80adc:	10842704 	addi	r2,r2,4252
   80ae0:	10c00035 	stwio	r3,0(r2)

	LCD_WR_REG(0x00F2);    // 3Gamma Function Disable
   80ae4:	00c03c84 	movi	r3,242
   80ae8:	00800434 	movhi	r2,16
   80aec:	10842604 	addi	r2,r2,4248
   80af0:	10c00035 	stwio	r3,0(r2)
		LCD_WR_DATA(0x0000);
   80af4:	0007883a 	mov	r3,zero
   80af8:	00800434 	movhi	r2,16
   80afc:	10842704 	addi	r2,r2,4252
   80b00:	10c00035 	stwio	r3,0(r2)

	LCD_WR_REG(0x0026);    //Gamma curve selected
   80b04:	00c00984 	movi	r3,38
   80b08:	00800434 	movhi	r2,16
   80b0c:	10842604 	addi	r2,r2,4248
   80b10:	10c00035 	stwio	r3,0(r2)
		LCD_WR_DATA(0x0001);
   80b14:	00c00044 	movi	r3,1
   80b18:	00800434 	movhi	r2,16
   80b1c:	10842704 	addi	r2,r2,4252
   80b20:	10c00035 	stwio	r3,0(r2)

	LCD_WR_REG(0x00E0);    //Set Gamma
   80b24:	00c03804 	movi	r3,224
   80b28:	00800434 	movhi	r2,16
   80b2c:	10842604 	addi	r2,r2,4248
   80b30:	10c00035 	stwio	r3,0(r2)
		LCD_WR_DATA(0x000F);
   80b34:	00c003c4 	movi	r3,15
   80b38:	00800434 	movhi	r2,16
   80b3c:	10842704 	addi	r2,r2,4252
   80b40:	10c00035 	stwio	r3,0(r2)
		LCD_WR_DATA(0x0026);
   80b44:	00c00984 	movi	r3,38
   80b48:	00800434 	movhi	r2,16
   80b4c:	10842704 	addi	r2,r2,4252
   80b50:	10c00035 	stwio	r3,0(r2)
		LCD_WR_DATA(0x0024);
   80b54:	00c00904 	movi	r3,36
   80b58:	00800434 	movhi	r2,16
   80b5c:	10842704 	addi	r2,r2,4252
   80b60:	10c00035 	stwio	r3,0(r2)
		LCD_WR_DATA(0x000b);
   80b64:	00c002c4 	movi	r3,11
   80b68:	00800434 	movhi	r2,16
   80b6c:	10842704 	addi	r2,r2,4252
   80b70:	10c00035 	stwio	r3,0(r2)
		LCD_WR_DATA(0x000E);
   80b74:	00c00384 	movi	r3,14
   80b78:	00800434 	movhi	r2,16
   80b7c:	10842704 	addi	r2,r2,4252
   80b80:	10c00035 	stwio	r3,0(r2)
		LCD_WR_DATA(0x0008);
   80b84:	00c00204 	movi	r3,8
   80b88:	00800434 	movhi	r2,16
   80b8c:	10842704 	addi	r2,r2,4252
   80b90:	10c00035 	stwio	r3,0(r2)
		LCD_WR_DATA(0x004b);
   80b94:	00c012c4 	movi	r3,75
   80b98:	00800434 	movhi	r2,16
   80b9c:	10842704 	addi	r2,r2,4252
   80ba0:	10c00035 	stwio	r3,0(r2)
		LCD_WR_DATA(0X00a8);
   80ba4:	00c02a04 	movi	r3,168
   80ba8:	00800434 	movhi	r2,16
   80bac:	10842704 	addi	r2,r2,4252
   80bb0:	10c00035 	stwio	r3,0(r2)
		LCD_WR_DATA(0x003b);
   80bb4:	00c00ec4 	movi	r3,59
   80bb8:	00800434 	movhi	r2,16
   80bbc:	10842704 	addi	r2,r2,4252
   80bc0:	10c00035 	stwio	r3,0(r2)
		LCD_WR_DATA(0x000a);
   80bc4:	00c00284 	movi	r3,10
   80bc8:	00800434 	movhi	r2,16
   80bcc:	10842704 	addi	r2,r2,4252
   80bd0:	10c00035 	stwio	r3,0(r2)
		LCD_WR_DATA(0x0014);
   80bd4:	00c00504 	movi	r3,20
   80bd8:	00800434 	movhi	r2,16
   80bdc:	10842704 	addi	r2,r2,4252
   80be0:	10c00035 	stwio	r3,0(r2)
		LCD_WR_DATA(0x0006);
   80be4:	00c00184 	movi	r3,6
   80be8:	00800434 	movhi	r2,16
   80bec:	10842704 	addi	r2,r2,4252
   80bf0:	10c00035 	stwio	r3,0(r2)
		LCD_WR_DATA(0x0010);
   80bf4:	00c00404 	movi	r3,16
   80bf8:	00800434 	movhi	r2,16
   80bfc:	10842704 	addi	r2,r2,4252
   80c00:	10c00035 	stwio	r3,0(r2)
		LCD_WR_DATA(0x0009);
   80c04:	00c00244 	movi	r3,9
   80c08:	00800434 	movhi	r2,16
   80c0c:	10842704 	addi	r2,r2,4252
   80c10:	10c00035 	stwio	r3,0(r2)
		LCD_WR_DATA(0x0000);
   80c14:	0007883a 	mov	r3,zero
   80c18:	00800434 	movhi	r2,16
   80c1c:	10842704 	addi	r2,r2,4252
   80c20:	10c00035 	stwio	r3,0(r2)

	LCD_WR_REG(0X00E1);    //Set Gamma
   80c24:	00c03844 	movi	r3,225
   80c28:	00800434 	movhi	r2,16
   80c2c:	10842604 	addi	r2,r2,4248
   80c30:	10c00035 	stwio	r3,0(r2)
		LCD_WR_DATA(0x0000);
   80c34:	0007883a 	mov	r3,zero
   80c38:	00800434 	movhi	r2,16
   80c3c:	10842704 	addi	r2,r2,4252
   80c40:	10c00035 	stwio	r3,0(r2)
		LCD_WR_DATA(0x001c);
   80c44:	00c00704 	movi	r3,28
   80c48:	00800434 	movhi	r2,16
   80c4c:	10842704 	addi	r2,r2,4252
   80c50:	10c00035 	stwio	r3,0(r2)
		LCD_WR_DATA(0x0020);
   80c54:	00c00804 	movi	r3,32
   80c58:	00800434 	movhi	r2,16
   80c5c:	10842704 	addi	r2,r2,4252
   80c60:	10c00035 	stwio	r3,0(r2)
		LCD_WR_DATA(0x0004);
   80c64:	00c00104 	movi	r3,4
   80c68:	00800434 	movhi	r2,16
   80c6c:	10842704 	addi	r2,r2,4252
   80c70:	10c00035 	stwio	r3,0(r2)
		LCD_WR_DATA(0x0010);
   80c74:	00c00404 	movi	r3,16
   80c78:	00800434 	movhi	r2,16
   80c7c:	10842704 	addi	r2,r2,4252
   80c80:	10c00035 	stwio	r3,0(r2)
		LCD_WR_DATA(0x0008);
   80c84:	00c00204 	movi	r3,8
   80c88:	00800434 	movhi	r2,16
   80c8c:	10842704 	addi	r2,r2,4252
   80c90:	10c00035 	stwio	r3,0(r2)
		LCD_WR_DATA(0x0034);
   80c94:	00c00d04 	movi	r3,52
   80c98:	00800434 	movhi	r2,16
   80c9c:	10842704 	addi	r2,r2,4252
   80ca0:	10c00035 	stwio	r3,0(r2)
		LCD_WR_DATA(0x0047);
   80ca4:	00c011c4 	movi	r3,71
   80ca8:	00800434 	movhi	r2,16
   80cac:	10842704 	addi	r2,r2,4252
   80cb0:	10c00035 	stwio	r3,0(r2)
		LCD_WR_DATA(0x0044);
   80cb4:	00c01104 	movi	r3,68
   80cb8:	00800434 	movhi	r2,16
   80cbc:	10842704 	addi	r2,r2,4252
   80cc0:	10c00035 	stwio	r3,0(r2)
		LCD_WR_DATA(0x0005);
   80cc4:	00c00144 	movi	r3,5
   80cc8:	00800434 	movhi	r2,16
   80ccc:	10842704 	addi	r2,r2,4252
   80cd0:	10c00035 	stwio	r3,0(r2)
		LCD_WR_DATA(0x000b);
   80cd4:	00c002c4 	movi	r3,11
   80cd8:	00800434 	movhi	r2,16
   80cdc:	10842704 	addi	r2,r2,4252
   80ce0:	10c00035 	stwio	r3,0(r2)
		LCD_WR_DATA(0x0009);
   80ce4:	00c00244 	movi	r3,9
   80ce8:	00800434 	movhi	r2,16
   80cec:	10842704 	addi	r2,r2,4252
   80cf0:	10c00035 	stwio	r3,0(r2)
		LCD_WR_DATA(0x002f);
   80cf4:	00c00bc4 	movi	r3,47
   80cf8:	00800434 	movhi	r2,16
   80cfc:	10842704 	addi	r2,r2,4252
   80d00:	10c00035 	stwio	r3,0(r2)
		LCD_WR_DATA(0x0036);
   80d04:	00c00d84 	movi	r3,54
   80d08:	00800434 	movhi	r2,16
   80d0c:	10842704 	addi	r2,r2,4252
   80d10:	10c00035 	stwio	r3,0(r2)
		LCD_WR_DATA(0x000f);
   80d14:	00c003c4 	movi	r3,15
   80d18:	00800434 	movhi	r2,16
   80d1c:	10842704 	addi	r2,r2,4252
   80d20:	10c00035 	stwio	r3,0(r2)

	LCD_WR_REG(0x002A);
   80d24:	00c00a84 	movi	r3,42
   80d28:	00800434 	movhi	r2,16
   80d2c:	10842604 	addi	r2,r2,4248
   80d30:	10c00035 	stwio	r3,0(r2)
		LCD_WR_DATA(0x0000);
   80d34:	0007883a 	mov	r3,zero
   80d38:	00800434 	movhi	r2,16
   80d3c:	10842704 	addi	r2,r2,4252
   80d40:	10c00035 	stwio	r3,0(r2)
		LCD_WR_DATA(0x0000);
   80d44:	0007883a 	mov	r3,zero
   80d48:	00800434 	movhi	r2,16
   80d4c:	10842704 	addi	r2,r2,4252
   80d50:	10c00035 	stwio	r3,0(r2)
		LCD_WR_DATA(0x0000);
   80d54:	0007883a 	mov	r3,zero
   80d58:	00800434 	movhi	r2,16
   80d5c:	10842704 	addi	r2,r2,4252
   80d60:	10c00035 	stwio	r3,0(r2)
		LCD_WR_DATA(0x00ef);
   80d64:	00c03bc4 	movi	r3,239
   80d68:	00800434 	movhi	r2,16
   80d6c:	10842704 	addi	r2,r2,4252
   80d70:	10c00035 	stwio	r3,0(r2)

	 LCD_WR_REG(0x002B);
   80d74:	00c00ac4 	movi	r3,43
   80d78:	00800434 	movhi	r2,16
   80d7c:	10842604 	addi	r2,r2,4248
   80d80:	10c00035 	stwio	r3,0(r2)
		LCD_WR_DATA(0x0000);
   80d84:	0007883a 	mov	r3,zero
   80d88:	00800434 	movhi	r2,16
   80d8c:	10842704 	addi	r2,r2,4252
   80d90:	10c00035 	stwio	r3,0(r2)
		LCD_WR_DATA(0x0000);
   80d94:	0007883a 	mov	r3,zero
   80d98:	00800434 	movhi	r2,16
   80d9c:	10842704 	addi	r2,r2,4252
   80da0:	10c00035 	stwio	r3,0(r2)
		LCD_WR_DATA(0x0001);
   80da4:	00c00044 	movi	r3,1
   80da8:	00800434 	movhi	r2,16
   80dac:	10842704 	addi	r2,r2,4252
   80db0:	10c00035 	stwio	r3,0(r2)
		LCD_WR_DATA(0x003f);
   80db4:	00c00fc4 	movi	r3,63
   80db8:	00800434 	movhi	r2,16
   80dbc:	10842704 	addi	r2,r2,4252
   80dc0:	10c00035 	stwio	r3,0(r2)

	LCD_WR_REG(0x003A);
   80dc4:	00c00e84 	movi	r3,58
   80dc8:	00800434 	movhi	r2,16
   80dcc:	10842604 	addi	r2,r2,4248
   80dd0:	10c00035 	stwio	r3,0(r2)
		LCD_WR_DATA(0x0055);
   80dd4:	00c01544 	movi	r3,85
   80dd8:	00800434 	movhi	r2,16
   80ddc:	10842704 	addi	r2,r2,4252
   80de0:	10c00035 	stwio	r3,0(r2)

	LCD_WR_REG(0x00f6);
   80de4:	00c03d84 	movi	r3,246
   80de8:	00800434 	movhi	r2,16
   80dec:	10842604 	addi	r2,r2,4248
   80df0:	10c00035 	stwio	r3,0(r2)
		LCD_WR_DATA(0x0001);
   80df4:	00c00044 	movi	r3,1
   80df8:	00800434 	movhi	r2,16
   80dfc:	10842704 	addi	r2,r2,4252
   80e00:	10c00035 	stwio	r3,0(r2)
		LCD_WR_DATA(0x0030);
   80e04:	00c00c04 	movi	r3,48
   80e08:	00800434 	movhi	r2,16
   80e0c:	10842704 	addi	r2,r2,4252
   80e10:	10c00035 	stwio	r3,0(r2)
		LCD_WR_DATA(0x0000);
   80e14:	0007883a 	mov	r3,zero
   80e18:	00800434 	movhi	r2,16
   80e1c:	10842704 	addi	r2,r2,4252
   80e20:	10c00035 	stwio	r3,0(r2)

	LCD_WR_REG(0x0029); //display on
   80e24:	00c00a44 	movi	r3,41
   80e28:	00800434 	movhi	r2,16
   80e2c:	10842604 	addi	r2,r2,4248
   80e30:	10c00035 	stwio	r3,0(r2)

	LCD_WR_REG(0x002c);    // 0x2C
   80e34:	00c00b04 	movi	r3,44
   80e38:	00800434 	movhi	r2,16
   80e3c:	10842604 	addi	r2,r2,4248
   80e40:	10c00035 	stwio	r3,0(r2)

}
   80e44:	e037883a 	mov	sp,fp
   80e48:	dfc00117 	ldw	ra,4(sp)
   80e4c:	df000017 	ldw	fp,0(sp)
   80e50:	dec00204 	addi	sp,sp,8
   80e54:	f800283a 	ret

00080e58 <LCD_Pattern_Horizon>:


void LCD_Pattern_Horizon(void)
{
   80e58:	defffc04 	addi	sp,sp,-16
   80e5c:	dfc00315 	stw	ra,12(sp)
   80e60:	df000215 	stw	fp,8(sp)
   80e64:	df000204 	addi	fp,sp,8
        alt_u32 index=0;
   80e68:	e03ffe15 	stw	zero,-8(fp)
        alt_u16  data=0;
   80e6c:	e03fff0d 	sth	zero,-4(fp)
        LCD_SetCursor(0x00,0x0000);
   80e70:	0009883a 	mov	r4,zero
   80e74:	000b883a 	mov	r5,zero
   80e78:	008064c0 	call	8064c <LCD_SetCursor>
        data=0x0000;
   80e7c:	e03fff0d 	sth	zero,-4(fp)
        for(index=0;index<240*80;index++)
   80e80:	e03ffe15 	stw	zero,-8(fp)
   80e84:	00000706 	br	80ea4 <LCD_Pattern_Horizon+0x4c>
        {
        	LCD_WR_DATA(data);
   80e88:	e0ffff0b 	ldhu	r3,-4(fp)
   80e8c:	00800434 	movhi	r2,16
   80e90:	10842704 	addi	r2,r2,4252
   80e94:	10c00035 	stwio	r3,0(r2)
{
        alt_u32 index=0;
        alt_u16  data=0;
        LCD_SetCursor(0x00,0x0000);
        data=0x0000;
        for(index=0;index<240*80;index++)
   80e98:	e0bffe17 	ldw	r2,-8(fp)
   80e9c:	10800044 	addi	r2,r2,1
   80ea0:	e0bffe15 	stw	r2,-8(fp)
   80ea4:	e0bffe17 	ldw	r2,-8(fp)
   80ea8:	1092c030 	cmpltui	r2,r2,19200
   80eac:	103ff61e 	bne	r2,zero,80e88 <LCD_Pattern_Horizon+0x30>
        {
        	LCD_WR_DATA(data);
        }
        LCD_SetCursor(0x00,80);
   80eb0:	0009883a 	mov	r4,zero
   80eb4:	01401404 	movi	r5,80
   80eb8:	008064c0 	call	8064c <LCD_SetCursor>
        data=RED;
   80ebc:	00be0004 	movi	r2,-2048
   80ec0:	e0bfff0d 	sth	r2,-4(fp)
		for(index=0;index<240*80;index++)
   80ec4:	e03ffe15 	stw	zero,-8(fp)
   80ec8:	00000706 	br	80ee8 <LCD_Pattern_Horizon+0x90>
		{
			LCD_WR_DATA(data);
   80ecc:	e0ffff0b 	ldhu	r3,-4(fp)
   80ed0:	00800434 	movhi	r2,16
   80ed4:	10842704 	addi	r2,r2,4252
   80ed8:	10c00035 	stwio	r3,0(r2)
        {
        	LCD_WR_DATA(data);
        }
        LCD_SetCursor(0x00,80);
        data=RED;
		for(index=0;index<240*80;index++)
   80edc:	e0bffe17 	ldw	r2,-8(fp)
   80ee0:	10800044 	addi	r2,r2,1
   80ee4:	e0bffe15 	stw	r2,-8(fp)
   80ee8:	e0bffe17 	ldw	r2,-8(fp)
   80eec:	1092c030 	cmpltui	r2,r2,19200
   80ef0:	103ff61e 	bne	r2,zero,80ecc <LCD_Pattern_Horizon+0x74>
		{
			LCD_WR_DATA(data);
		}
	    LCD_SetCursor(0x00,160);
   80ef4:	0009883a 	mov	r4,zero
   80ef8:	01402804 	movi	r5,160
   80efc:	008064c0 	call	8064c <LCD_SetCursor>
		data=GREEN;
   80f00:	0081f804 	movi	r2,2016
   80f04:	e0bfff0d 	sth	r2,-4(fp)
		for(index=0;index<240*80;index++)
   80f08:	e03ffe15 	stw	zero,-8(fp)
   80f0c:	00000706 	br	80f2c <LCD_Pattern_Horizon+0xd4>
		{
			LCD_WR_DATA(data);
   80f10:	e0ffff0b 	ldhu	r3,-4(fp)
   80f14:	00800434 	movhi	r2,16
   80f18:	10842704 	addi	r2,r2,4252
   80f1c:	10c00035 	stwio	r3,0(r2)
		{
			LCD_WR_DATA(data);
		}
	    LCD_SetCursor(0x00,160);
		data=GREEN;
		for(index=0;index<240*80;index++)
   80f20:	e0bffe17 	ldw	r2,-8(fp)
   80f24:	10800044 	addi	r2,r2,1
   80f28:	e0bffe15 	stw	r2,-8(fp)
   80f2c:	e0bffe17 	ldw	r2,-8(fp)
   80f30:	1092c030 	cmpltui	r2,r2,19200
   80f34:	103ff61e 	bne	r2,zero,80f10 <LCD_Pattern_Horizon+0xb8>
		{
			LCD_WR_DATA(data);
		}
		LCD_SetCursor(0x00,240);
   80f38:	0009883a 	mov	r4,zero
   80f3c:	01403c04 	movi	r5,240
   80f40:	008064c0 	call	8064c <LCD_SetCursor>
		data=BLUE;
   80f44:	008007c4 	movi	r2,31
   80f48:	e0bfff0d 	sth	r2,-4(fp)
		for(index=0;index<240*80;index++)
   80f4c:	e03ffe15 	stw	zero,-8(fp)
   80f50:	00000706 	br	80f70 <LCD_Pattern_Horizon+0x118>
		{
			LCD_WR_DATA(data);
   80f54:	e0ffff0b 	ldhu	r3,-4(fp)
   80f58:	00800434 	movhi	r2,16
   80f5c:	10842704 	addi	r2,r2,4252
   80f60:	10c00035 	stwio	r3,0(r2)
		{
			LCD_WR_DATA(data);
		}
		LCD_SetCursor(0x00,240);
		data=BLUE;
		for(index=0;index<240*80;index++)
   80f64:	e0bffe17 	ldw	r2,-8(fp)
   80f68:	10800044 	addi	r2,r2,1
   80f6c:	e0bffe15 	stw	r2,-8(fp)
   80f70:	e0bffe17 	ldw	r2,-8(fp)
   80f74:	1092c030 	cmpltui	r2,r2,19200
   80f78:	103ff61e 	bne	r2,zero,80f54 <LCD_Pattern_Horizon+0xfc>
		{
			LCD_WR_DATA(data);
		}
}
   80f7c:	e037883a 	mov	sp,fp
   80f80:	dfc00117 	ldw	ra,4(sp)
   80f84:	df000017 	ldw	fp,0(sp)
   80f88:	dec00204 	addi	sp,sp,8
   80f8c:	f800283a 	ret

00080f90 <LCD_Pattern_Vertical>:

void LCD_Pattern_Vertical(void)
{
   80f90:	defff804 	addi	sp,sp,-32
   80f94:	dfc00715 	stw	ra,28(sp)
   80f98:	df000615 	stw	fp,24(sp)
   80f9c:	df000604 	addi	fp,sp,24
        int i,j,m;
        alt_u16  data=0;
   80fa0:	e03ffd0d 	sth	zero,-12(fp)
        alt_u16  color[4]={WHITE,BLUE,GREEN,RED};
   80fa4:	00bfffc4 	movi	r2,-1
   80fa8:	e0bffd8d 	sth	r2,-10(fp)
   80fac:	008007c4 	movi	r2,31
   80fb0:	e0bffe0d 	sth	r2,-8(fp)
   80fb4:	0081f804 	movi	r2,2016
   80fb8:	e0bffe8d 	sth	r2,-6(fp)
   80fbc:	00be0004 	movi	r2,-2048
   80fc0:	e0bfff0d 	sth	r2,-4(fp)
        LCD_SetCursor(0x00,0x0000);
   80fc4:	0009883a 	mov	r4,zero
   80fc8:	000b883a 	mov	r5,zero
   80fcc:	008064c0 	call	8064c <LCD_SetCursor>
        for(m=0;m<320;m++)
   80fd0:	e03ffc15 	stw	zero,-16(fp)
   80fd4:	00001e06 	br	81050 <LCD_Pattern_Vertical+0xc0>
        {
			for(i=0;i<4;i++)
   80fd8:	e03ffa15 	stw	zero,-24(fp)
   80fdc:	00001606 	br	81038 <LCD_Pattern_Vertical+0xa8>
			{
				data=color[i];
   80fe0:	e0bffa17 	ldw	r2,-24(fp)
   80fe4:	1085883a 	add	r2,r2,r2
   80fe8:	e0fffa04 	addi	r3,fp,-24
   80fec:	1885883a 	add	r2,r3,r2
   80ff0:	10800384 	addi	r2,r2,14
   80ff4:	1080000b 	ldhu	r2,0(r2)
   80ff8:	e0bffd0d 	sth	r2,-12(fp)
				for(j=0;j<60;j++)
   80ffc:	e03ffb15 	stw	zero,-20(fp)
   81000:	00000706 	br	81020 <LCD_Pattern_Vertical+0x90>
				{
					LCD_WR_DATA(data);
   81004:	e0fffd0b 	ldhu	r3,-12(fp)
   81008:	00800434 	movhi	r2,16
   8100c:	10842704 	addi	r2,r2,4252
   81010:	10c00035 	stwio	r3,0(r2)
        for(m=0;m<320;m++)
        {
			for(i=0;i<4;i++)
			{
				data=color[i];
				for(j=0;j<60;j++)
   81014:	e0bffb17 	ldw	r2,-20(fp)
   81018:	10800044 	addi	r2,r2,1
   8101c:	e0bffb15 	stw	r2,-20(fp)
   81020:	e0bffb17 	ldw	r2,-20(fp)
   81024:	10800f10 	cmplti	r2,r2,60
   81028:	103ff61e 	bne	r2,zero,81004 <LCD_Pattern_Vertical+0x74>
        alt_u16  data=0;
        alt_u16  color[4]={WHITE,BLUE,GREEN,RED};
        LCD_SetCursor(0x00,0x0000);
        for(m=0;m<320;m++)
        {
			for(i=0;i<4;i++)
   8102c:	e0bffa17 	ldw	r2,-24(fp)
   81030:	10800044 	addi	r2,r2,1
   81034:	e0bffa15 	stw	r2,-24(fp)
   81038:	e0bffa17 	ldw	r2,-24(fp)
   8103c:	10800110 	cmplti	r2,r2,4
   81040:	103fe71e 	bne	r2,zero,80fe0 <LCD_Pattern_Vertical+0x50>
{
        int i,j,m;
        alt_u16  data=0;
        alt_u16  color[4]={WHITE,BLUE,GREEN,RED};
        LCD_SetCursor(0x00,0x0000);
        for(m=0;m<320;m++)
   81044:	e0bffc17 	ldw	r2,-16(fp)
   81048:	10800044 	addi	r2,r2,1
   8104c:	e0bffc15 	stw	r2,-16(fp)
   81050:	e0bffc17 	ldw	r2,-16(fp)
   81054:	10805010 	cmplti	r2,r2,320
   81058:	103fdf1e 	bne	r2,zero,80fd8 <LCD_Pattern_Vertical+0x48>
				{
					LCD_WR_DATA(data);
				}
			}
        }
}
   8105c:	e037883a 	mov	sp,fp
   81060:	dfc00117 	ldw	ra,4(sp)
   81064:	df000017 	ldw	fp,0(sp)
   81068:	dec00204 	addi	sp,sp,8
   8106c:	f800283a 	ret

00081070 <vid_clean_screen>:
#include "ILI9341.h"
#endif


// richard add
void vid_clean_screen(alt_video_display* display, int color){
   81070:	defffa04 	addi	sp,sp,-24
   81074:	dfc00515 	stw	ra,20(sp)
   81078:	df000415 	stw	fp,16(sp)
   8107c:	df000404 	addi	fp,sp,16
   81080:	e13ffe15 	stw	r4,-8(fp)
   81084:	e17fff15 	stw	r5,-4(fp)
    vid_paint_block(0 , 0,display->width, display->height, color, display);
   81088:	e0bffe17 	ldw	r2,-8(fp)
   8108c:	10c00117 	ldw	r3,4(r2)
   81090:	e0bffe17 	ldw	r2,-8(fp)
   81094:	10800217 	ldw	r2,8(r2)
   81098:	e13fff17 	ldw	r4,-4(fp)
   8109c:	d9000015 	stw	r4,0(sp)
   810a0:	e13ffe17 	ldw	r4,-8(fp)
   810a4:	d9000115 	stw	r4,4(sp)
   810a8:	0009883a 	mov	r4,zero
   810ac:	000b883a 	mov	r5,zero
   810b0:	180d883a 	mov	r6,r3
   810b4:	100f883a 	mov	r7,r2
   810b8:	0081bec0 	call	81bec <vid_paint_block>
}
   810bc:	e037883a 	mov	sp,fp
   810c0:	dfc00117 	ldw	ra,4(sp)
   810c4:	df000017 	ldw	fp,0(sp)
   810c8:	dec00204 	addi	sp,sp,8
   810cc:	f800283a 	ret

000810d0 <vid_draw_line>:
*           vid_draw_horiz_line(), which is much faster than 
*           vid_draw_sloped_line.
*
******************************************************************/
__inline__ void vid_draw_line(int horiz_start, int vert_start, int horiz_end, int vert_end, int width, int color, alt_video_display* display)
{
   810d0:	defff704 	addi	sp,sp,-36
   810d4:	dfc00815 	stw	ra,32(sp)
   810d8:	df000715 	stw	fp,28(sp)
   810dc:	df000704 	addi	fp,sp,28
   810e0:	e13ffc15 	stw	r4,-16(fp)
   810e4:	e17ffd15 	stw	r5,-12(fp)
   810e8:	e1bffe15 	stw	r6,-8(fp)
   810ec:	e1ffff15 	stw	r7,-4(fp)
 
  if( vert_start == vert_end )
   810f0:	e0fffd17 	ldw	r3,-12(fp)
   810f4:	e0bfff17 	ldw	r2,-4(fp)
   810f8:	1880111e 	bne	r3,r2,81140 <vid_draw_line+0x70>
//                         (unsigned short)horiz_end,  
//                         (unsigned short)vert_start,
//                         color,
//                         display->buffer_ptrs[display->buffer_being_written]->buffer);

    vid_draw_horiz_line( (unsigned short)horiz_start, 
   810fc:	e0bffc17 	ldw	r2,-16(fp)
   81100:	113fffcc 	andi	r4,r2,65535
   81104:	2120001c 	xori	r4,r4,32768
   81108:	21200004 	addi	r4,r4,-32768
   8110c:	e0bffe17 	ldw	r2,-8(fp)
   81110:	10ffffcc 	andi	r3,r2,65535
   81114:	18e0001c 	xori	r3,r3,32768
   81118:	18e00004 	addi	r3,r3,-32768
                         (unsigned short)horiz_end, 
                         (unsigned short)vert_start,
   8111c:	e0bffd17 	ldw	r2,-12(fp)
//                         (unsigned short)horiz_end,  
//                         (unsigned short)vert_start,
//                         color,
//                         display->buffer_ptrs[display->buffer_being_written]->buffer);

    vid_draw_horiz_line( (unsigned short)horiz_start, 
   81120:	10bfffcc 	andi	r2,r2,65535
   81124:	e1400417 	ldw	r5,16(fp)
   81128:	d9400015 	stw	r5,0(sp)
   8112c:	180b883a 	mov	r5,r3
   81130:	100d883a 	mov	r6,r2
   81134:	e1c00317 	ldw	r7,12(fp)
   81138:	0081c800 	call	81c80 <vid_draw_horiz_line>
   8113c:	00001206 	br	81188 <vid_draw_line+0xb8>
                         color,
                         display );
  }
  else
  {
    vid_draw_sloped_line( (unsigned short)horiz_start, 
   81140:	e0bffc17 	ldw	r2,-16(fp)
   81144:	113fffcc 	andi	r4,r2,65535
                          (unsigned short)vert_start, 
   81148:	e0bffd17 	ldw	r2,-12(fp)
                         color,
                         display );
  }
  else
  {
    vid_draw_sloped_line( (unsigned short)horiz_start, 
   8114c:	117fffcc 	andi	r5,r2,65535
                          (unsigned short)vert_start, 
                          (unsigned short)horiz_end, 
   81150:	e0bffe17 	ldw	r2,-8(fp)
                         color,
                         display );
  }
  else
  {
    vid_draw_sloped_line( (unsigned short)horiz_start, 
   81154:	10ffffcc 	andi	r3,r2,65535
                          (unsigned short)vert_start, 
                          (unsigned short)horiz_end, 
                          (unsigned short)vert_end, 
   81158:	e0bfff17 	ldw	r2,-4(fp)
                         color,
                         display );
  }
  else
  {
    vid_draw_sloped_line( (unsigned short)horiz_start, 
   8115c:	10bfffcc 	andi	r2,r2,65535
                          (unsigned short)vert_start, 
                          (unsigned short)horiz_end, 
                          (unsigned short)vert_end, 
                          (unsigned short)width, 
   81160:	e1800217 	ldw	r6,8(fp)
                         color,
                         display );
  }
  else
  {
    vid_draw_sloped_line( (unsigned short)horiz_start, 
   81164:	31bfffcc 	andi	r6,r6,65535
   81168:	d9800015 	stw	r6,0(sp)
   8116c:	e1800317 	ldw	r6,12(fp)
   81170:	d9800115 	stw	r6,4(sp)
   81174:	e1800417 	ldw	r6,16(fp)
   81178:	d9800215 	stw	r6,8(sp)
   8117c:	180d883a 	mov	r6,r3
   81180:	100f883a 	mov	r7,r2
   81184:	0081e900 	call	81e90 <vid_draw_sloped_line>
                          (unsigned short)vert_end, 
                          (unsigned short)width, 
                          color,
                          display );
  }
}
   81188:	e037883a 	mov	sp,fp
   8118c:	dfc00117 	ldw	ra,4(sp)
   81190:	df000017 	ldw	fp,0(sp)
   81194:	dec00204 	addi	sp,sp,8
   81198:	f800283a 	ret

0008119c <vid_scroll_string_quit>:



void vid_scroll_string_quit(vid_text_scroll_struct* scroll)
{
   8119c:	defffd04 	addi	sp,sp,-12
   811a0:	dfc00215 	stw	ra,8(sp)
   811a4:	df000115 	stw	fp,4(sp)
   811a8:	df000104 	addi	fp,sp,4
   811ac:	e13fff15 	stw	r4,-4(fp)
  free(scroll->string);
   811b0:	e0bfff17 	ldw	r2,-4(fp)
   811b4:	10800517 	ldw	r2,20(r2)
   811b8:	1009883a 	mov	r4,r2
   811bc:	00888ec0 	call	888ec <free>
  free(scroll);
   811c0:	e13fff17 	ldw	r4,-4(fp)
   811c4:	00888ec0 	call	888ec <free>
}
   811c8:	e037883a 	mov	sp,fp
   811cc:	dfc00117 	ldw	ra,4(sp)
   811d0:	df000017 	ldw	fp,0(sp)
   811d4:	dec00204 	addi	sp,sp,8
   811d8:	f800283a 	ret

000811dc <vid_scroll_string_init>:

vid_text_scroll_struct* vid_scroll_string_init(int hbegin, int vbegin, int hend, int f_color, int b_color, char* font, int ms_delay, char *string)
{
   811dc:	defff904 	addi	sp,sp,-28
   811e0:	dfc00615 	stw	ra,24(sp)
   811e4:	df000515 	stw	fp,20(sp)
   811e8:	df000504 	addi	fp,sp,20
   811ec:	e13ffc15 	stw	r4,-16(fp)
   811f0:	e17ffd15 	stw	r5,-12(fp)
   811f4:	e1bffe15 	stw	r6,-8(fp)
   811f8:	e1ffff15 	stw	r7,-4(fp)
  vid_text_scroll_struct* scroll;
  scroll = malloc(sizeof (vid_text_scroll_struct));
   811fc:	01000f04 	movi	r4,60
   81200:	00888d80 	call	888d8 <malloc>
   81204:	e0bffb15 	stw	r2,-20(fp)
  
  scroll->hbegin = hbegin;
   81208:	e0bffb17 	ldw	r2,-20(fp)
   8120c:	e0fffc17 	ldw	r3,-16(fp)
   81210:	10c00015 	stw	r3,0(r2)
  scroll->vbegin = vbegin;
   81214:	e0bffb17 	ldw	r2,-20(fp)
   81218:	e0fffd17 	ldw	r3,-12(fp)
   8121c:	10c00115 	stw	r3,4(r2)
  scroll->hend = hend;
   81220:	e0bffb17 	ldw	r2,-20(fp)
   81224:	e0fffe17 	ldw	r3,-8(fp)
   81228:	10c00215 	stw	r3,8(r2)
  scroll->f_color = f_color;
   8122c:	e0bffb17 	ldw	r2,-20(fp)
   81230:	e0ffff17 	ldw	r3,-4(fp)
   81234:	10c00315 	stw	r3,12(r2)
  scroll->b_color = b_color;
   81238:	e0bffb17 	ldw	r2,-20(fp)
   8123c:	e0c00217 	ldw	r3,8(fp)
   81240:	10c00415 	stw	r3,16(r2)
  scroll->string = malloc(strlen(string)+2);
   81244:	e1000517 	ldw	r4,20(fp)
   81248:	00895140 	call	89514 <strlen>
   8124c:	10800084 	addi	r2,r2,2
   81250:	1009883a 	mov	r4,r2
   81254:	00888d80 	call	888d8 <malloc>
   81258:	1007883a 	mov	r3,r2
   8125c:	e0bffb17 	ldw	r2,-20(fp)
   81260:	10c00515 	stw	r3,20(r2)
  strcpy(scroll->string, string);
   81264:	e0bffb17 	ldw	r2,-20(fp)
   81268:	10800517 	ldw	r2,20(r2)
   8126c:	1009883a 	mov	r4,r2
   81270:	e1400517 	ldw	r5,20(fp)
   81274:	00894800 	call	89480 <strcpy>
  scroll->font = font;
   81278:	e0bffb17 	ldw	r2,-20(fp)
   8127c:	e0c00317 	ldw	r3,12(fp)
   81280:	10c00615 	stw	r3,24(r2)
  scroll->ms_delay = ms_delay;
   81284:	e0bffb17 	ldw	r2,-20(fp)
   81288:	e0c00417 	ldw	r3,16(fp)
   8128c:	10c00715 	stw	r3,28(r2)
 * alt_nticks() returns the elapsed number of system clock ticks since reset.
 */

static ALT_INLINE alt_u32 ALT_ALWAYS_INLINE alt_nticks (void)
{
  return _alt_nticks;
   81290:	008002f4 	movhi	r2,11
   81294:	1091ee04 	addi	r2,r2,18360
   81298:	10800017 	ldw	r2,0(r2)
  scroll->ticks_at_last_move = alt_nticks();
   8129c:	1007883a 	mov	r3,r2
   812a0:	e0bffb17 	ldw	r2,-20(fp)
   812a4:	10c00815 	stw	r3,32(r2)
  scroll->text_scroll_index = 0;
   812a8:	e0bffb17 	ldw	r2,-20(fp)
   812ac:	10000915 	stw	zero,36(r2)
  scroll->text_scroll_started = 0;
   812b0:	e0bffb17 	ldw	r2,-20(fp)
   812b4:	10000a05 	stb	zero,40(r2)
  scroll->window_width = scroll->hend - scroll->hbegin;
   812b8:	e0bffb17 	ldw	r2,-20(fp)
   812bc:	10c00217 	ldw	r3,8(r2)
   812c0:	e0bffb17 	ldw	r2,-20(fp)
   812c4:	10800017 	ldw	r2,0(r2)
   812c8:	1887c83a 	sub	r3,r3,r2
   812cc:	e0bffb17 	ldw	r2,-20(fp)
   812d0:	10c00b15 	stw	r3,44(r2)
  scroll->length_of_string = strlen(string);
   812d4:	e1000517 	ldw	r4,20(fp)
   812d8:	00895140 	call	89514 <strlen>
   812dc:	1007883a 	mov	r3,r2
   812e0:	e0bffb17 	ldw	r2,-20(fp)
   812e4:	10c00c15 	stw	r3,48(r2)
  scroll->string_points = scroll->length_of_string * 8;
   812e8:	e0bffb17 	ldw	r2,-20(fp)
   812ec:	10800c17 	ldw	r2,48(r2)
   812f0:	100690fa 	slli	r3,r2,3
   812f4:	e0bffb17 	ldw	r2,-20(fp)
   812f8:	10c00e15 	stw	r3,56(r2)
  scroll->scroll_points = (scroll->window_width + scroll->string_points);
   812fc:	e0bffb17 	ldw	r2,-20(fp)
   81300:	10c00b17 	ldw	r3,44(r2)
   81304:	e0bffb17 	ldw	r2,-20(fp)
   81308:	10800e17 	ldw	r2,56(r2)
   8130c:	1887883a 	add	r3,r3,r2
   81310:	e0bffb17 	ldw	r2,-20(fp)
   81314:	10c00d15 	stw	r3,52(r2)
 
  return(scroll);
   81318:	e0bffb17 	ldw	r2,-20(fp)
  
}
   8131c:	e037883a 	mov	sp,fp
   81320:	dfc00117 	ldw	ra,4(sp)
   81324:	df000017 	ldw	fp,0(sp)
   81328:	dec00204 	addi	sp,sp,8
   8132c:	f800283a 	ret

00081330 <vid_scroll_string>:


int vid_scroll_string(vid_text_scroll_struct* scroll, alt_video_display* display)
{
   81330:	deffec04 	addi	sp,sp,-80
   81334:	dfc01315 	stw	ra,76(sp)
   81338:	df001215 	stw	fp,72(sp)
   8133c:	dc401115 	stw	r17,68(sp)
   81340:	dc001015 	stw	r16,64(sp)
   81344:	df001004 	addi	fp,sp,64
   81348:	e13ffe15 	stw	r4,-8(fp)
   8134c:	e17fff15 	stw	r5,-4(fp)

  int x_start, x_end, x_index, string_x_index, string_char_index, char_row, char_column;
  char character, column_mask;
  char* font_char_ptr;
  char pixels_to_move_by = 1;
   81350:	00800044 	movi	r2,1
   81354:	e0bff805 	stb	r2,-32(fp)
   81358:	008002f4 	movhi	r2,11
   8135c:	1091ee04 	addi	r2,r2,18360
   81360:	10800017 	ldw	r2,0(r2)

  // If it's time to move the scroll..
  if (alt_nticks() >= (scroll->ticks_at_last_move + ((alt_ticks_per_second() * (scroll->ms_delay)) / 1000))) {
   81364:	1021883a 	mov	r16,r2
   81368:	e0bffe17 	ldw	r2,-8(fp)
   8136c:	10800817 	ldw	r2,32(r2)
   81370:	1023883a 	mov	r17,r2
 * Obtain the system clock rate in ticks/s. 
 */

static ALT_INLINE alt_u32 ALT_ALWAYS_INLINE alt_ticks_per_second (void)
{
  return _alt_tick_rate;
   81374:	008002f4 	movhi	r2,11
   81378:	1091ed04 	addi	r2,r2,18356
   8137c:	10800017 	ldw	r2,0(r2)
   81380:	1007883a 	mov	r3,r2
   81384:	e0bffe17 	ldw	r2,-8(fp)
   81388:	10800717 	ldw	r2,28(r2)
   8138c:	1885383a 	mul	r2,r3,r2
   81390:	1009883a 	mov	r4,r2
   81394:	0140fa04 	movi	r5,1000
   81398:	008832c0 	call	8832c <__udivsi3>
   8139c:	8885883a 	add	r2,r17,r2
   813a0:	8080bb36 	bltu	r16,r2,81690 <vid_scroll_string+0x360>
 * alt_nticks() returns the elapsed number of system clock ticks since reset.
 */

static ALT_INLINE alt_u32 ALT_ALWAYS_INLINE alt_nticks (void)
{
  return _alt_nticks;
   813a4:	008002f4 	movhi	r2,11
   813a8:	1091ee04 	addi	r2,r2,18360
   813ac:	10800017 	ldw	r2,0(r2)
    scroll->ticks_at_last_move = alt_nticks();
   813b0:	1007883a 	mov	r3,r2
   813b4:	e0bffe17 	ldw	r2,-8(fp)
   813b8:	10c00815 	stw	r3,32(r2)
    
    // Track where we are in the scroll.
    if(scroll->text_scroll_started == 0) {
   813bc:	e0bffe17 	ldw	r2,-8(fp)
   813c0:	10800a03 	ldbu	r2,40(r2)
   813c4:	10803fcc 	andi	r2,r2,255
   813c8:	1080201c 	xori	r2,r2,128
   813cc:	10bfe004 	addi	r2,r2,-128
   813d0:	1000061e 	bne	r2,zero,813ec <vid_scroll_string+0xbc>
      scroll->text_scroll_index = 0;
   813d4:	e0bffe17 	ldw	r2,-8(fp)
   813d8:	10000915 	stw	zero,36(r2)
      scroll->text_scroll_started = 1;
   813dc:	e0bffe17 	ldw	r2,-8(fp)
   813e0:	00c00044 	movi	r3,1
   813e4:	10c00a05 	stb	r3,40(r2)
   813e8:	00000e06 	br	81424 <vid_scroll_string+0xf4>
    } else if(scroll->text_scroll_index >= scroll->scroll_points)  {
   813ec:	e0bffe17 	ldw	r2,-8(fp)
   813f0:	10c00917 	ldw	r3,36(r2)
   813f4:	e0bffe17 	ldw	r2,-8(fp)
   813f8:	10800d17 	ldw	r2,52(r2)
   813fc:	18800316 	blt	r3,r2,8140c <vid_scroll_string+0xdc>
      scroll->text_scroll_started = 0;
   81400:	e0bffe17 	ldw	r2,-8(fp)
   81404:	10000a05 	stb	zero,40(r2)
   81408:	00000606 	br	81424 <vid_scroll_string+0xf4>
    } else {
      scroll->text_scroll_index += pixels_to_move_by;
   8140c:	e0bffe17 	ldw	r2,-8(fp)
   81410:	10c00917 	ldw	r3,36(r2)
   81414:	e0bff807 	ldb	r2,-32(fp)
   81418:	1887883a 	add	r3,r3,r2
   8141c:	e0bffe17 	ldw	r2,-8(fp)
   81420:	10c00915 	stw	r3,36(r2)
    }
    
    //Find out where we start
    if (scroll->text_scroll_index < scroll->window_width) {
   81424:	e0bffe17 	ldw	r2,-8(fp)
   81428:	10c00917 	ldw	r3,36(r2)
   8142c:	e0bffe17 	ldw	r2,-8(fp)
   81430:	10800b17 	ldw	r2,44(r2)
   81434:	18800a0e 	bge	r3,r2,81460 <vid_scroll_string+0x130>
      x_start = scroll->hbegin + scroll->window_width - scroll->text_scroll_index;
   81438:	e0bffe17 	ldw	r2,-8(fp)
   8143c:	10c00017 	ldw	r3,0(r2)
   81440:	e0bffe17 	ldw	r2,-8(fp)
   81444:	10800b17 	ldw	r2,44(r2)
   81448:	1887883a 	add	r3,r3,r2
   8144c:	e0bffe17 	ldw	r2,-8(fp)
   81450:	10800917 	ldw	r2,36(r2)
   81454:	1885c83a 	sub	r2,r3,r2
   81458:	e0bff315 	stw	r2,-52(fp)
   8145c:	00000306 	br	8146c <vid_scroll_string+0x13c>
    } else {
      x_start = scroll->hbegin;
   81460:	e0bffe17 	ldw	r2,-8(fp)
   81464:	10800017 	ldw	r2,0(r2)
   81468:	e0bff315 	stw	r2,-52(fp)
    }
    //Find out where we end
    if (scroll->string_points > scroll->text_scroll_index) {
   8146c:	e0bffe17 	ldw	r2,-8(fp)
   81470:	10800e17 	ldw	r2,56(r2)
   81474:	e0fffe17 	ldw	r3,-8(fp)
   81478:	18c00917 	ldw	r3,36(r3)
   8147c:	1880040e 	bge	r3,r2,81490 <vid_scroll_string+0x160>
      x_end = scroll->hend;
   81480:	e0bffe17 	ldw	r2,-8(fp)
   81484:	10800217 	ldw	r2,8(r2)
   81488:	e0bff415 	stw	r2,-48(fp)
   8148c:	00000906 	br	814b4 <vid_scroll_string+0x184>
    } else {
      x_end = (scroll->hend - scroll->text_scroll_index + scroll->string_points);
   81490:	e0bffe17 	ldw	r2,-8(fp)
   81494:	10c00217 	ldw	r3,8(r2)
   81498:	e0bffe17 	ldw	r2,-8(fp)
   8149c:	10800917 	ldw	r2,36(r2)
   814a0:	1887c83a 	sub	r3,r3,r2
   814a4:	e0bffe17 	ldw	r2,-8(fp)
   814a8:	10800e17 	ldw	r2,56(r2)
   814ac:	1885883a 	add	r2,r3,r2
   814b0:	e0bff415 	stw	r2,-48(fp)
    }

    // Write the string segment a column (x) at a time
    for(x_index = x_start; x_index < x_end; x_index++) {
   814b4:	e0bff317 	ldw	r2,-52(fp)
   814b8:	e0bff515 	stw	r2,-44(fp)
   814bc:	00006006 	br	81640 <vid_scroll_string+0x310>
      // Find the x index we're at within the string
      // If first part of string hasnt yet reached left side of scroll window
      if (scroll->text_scroll_index < scroll->window_width) {
   814c0:	e0bffe17 	ldw	r2,-8(fp)
   814c4:	10c00917 	ldw	r3,36(r2)
   814c8:	e0bffe17 	ldw	r2,-8(fp)
   814cc:	10800b17 	ldw	r2,44(r2)
   814d0:	1880050e 	bge	r3,r2,814e8 <vid_scroll_string+0x1b8>
        string_x_index = (x_index - x_start);
   814d4:	e0fff517 	ldw	r3,-44(fp)
   814d8:	e0bff317 	ldw	r2,-52(fp)
   814dc:	1885c83a 	sub	r2,r3,r2
   814e0:	e0bff615 	stw	r2,-40(fp)
   814e4:	00000a06 	br	81510 <vid_scroll_string+0x1e0>
      } else {
        string_x_index = scroll->text_scroll_index - scroll->window_width + x_index - x_start;
   814e8:	e0bffe17 	ldw	r2,-8(fp)
   814ec:	10c00917 	ldw	r3,36(r2)
   814f0:	e0bffe17 	ldw	r2,-8(fp)
   814f4:	10800b17 	ldw	r2,44(r2)
   814f8:	1887c83a 	sub	r3,r3,r2
   814fc:	e0bff517 	ldw	r2,-44(fp)
   81500:	1887883a 	add	r3,r3,r2
   81504:	e0bff317 	ldw	r2,-52(fp)
   81508:	1885c83a 	sub	r2,r3,r2
   8150c:	e0bff615 	stw	r2,-40(fp)
      }
      //Find the character we're supposed to be writing
      string_char_index = (string_x_index / 8);
   81510:	e0bff617 	ldw	r2,-40(fp)
   81514:	1000010e 	bge	r2,zero,8151c <vid_scroll_string+0x1ec>
   81518:	108001c4 	addi	r2,r2,7
   8151c:	1005d0fa 	srai	r2,r2,3
   81520:	e0bff915 	stw	r2,-28(fp)
      character = scroll->string[string_char_index];
   81524:	e0bffe17 	ldw	r2,-8(fp)
   81528:	10c00517 	ldw	r3,20(r2)
   8152c:	e0bff917 	ldw	r2,-28(fp)
   81530:	1885883a 	add	r2,r3,r2
   81534:	10800003 	ldbu	r2,0(r2)
   81538:	e0bffa05 	stb	r2,-24(fp)
      char_column = (string_x_index % 8);
   8153c:	e0fff617 	ldw	r3,-40(fp)
   81540:	00a00034 	movhi	r2,32768
   81544:	108001c4 	addi	r2,r2,7
   81548:	1884703a 	and	r2,r3,r2
   8154c:	1000040e 	bge	r2,zero,81560 <vid_scroll_string+0x230>
   81550:	10bfffc4 	addi	r2,r2,-1
   81554:	00fffe04 	movi	r3,-8
   81558:	10c4b03a 	or	r2,r2,r3
   8155c:	10800044 	addi	r2,r2,1
   81560:	e0bffb15 	stw	r2,-20(fp)
      column_mask = (((unsigned int)0x80) >> char_column);
   81564:	00c02004 	movi	r3,128
   81568:	e0bffb17 	ldw	r2,-20(fp)
   8156c:	1884d83a 	srl	r2,r3,r2
   81570:	e0bffc05 	stb	r2,-16(fp)
      font_char_ptr = (scroll->font + ((character - 0x20) * FONT_10PT_ROW));
   81574:	e0bffe17 	ldw	r2,-8(fp)
   81578:	10c00617 	ldw	r3,24(r2)
   8157c:	e0bffa07 	ldb	r2,-24(fp)
   81580:	108002e4 	muli	r2,r2,11
   81584:	10bfa804 	addi	r2,r2,-352
   81588:	1885883a 	add	r2,r3,r2
   8158c:	e0bffd15 	stw	r2,-12(fp)
      //We have all the data now, so let's write a column
      for(char_row = 0; char_row < 11; char_row++) {
   81590:	e03ff715 	stw	zero,-36(fp)
   81594:	00002406 	br	81628 <vid_scroll_string+0x2f8>
        // If the font table says this pixel is on, then set it to the foreground color
        if (*(font_char_ptr + char_row) & column_mask) {
   81598:	e0bff717 	ldw	r2,-36(fp)
   8159c:	e0fffd17 	ldw	r3,-12(fp)
   815a0:	1885883a 	add	r2,r3,r2
   815a4:	10c00003 	ldbu	r3,0(r2)
   815a8:	e0bffc03 	ldbu	r2,-16(fp)
   815ac:	1884703a 	and	r2,r3,r2
   815b0:	10803fcc 	andi	r2,r2,255
   815b4:	1080201c 	xori	r2,r2,128
   815b8:	10bfe004 	addi	r2,r2,-128
   815bc:	10000c26 	beq	r2,zero,815f0 <vid_scroll_string+0x2c0>
          vid_set_pixel(x_index, scroll->vbegin + char_row, scroll->f_color, display); 
   815c0:	e0bffe17 	ldw	r2,-8(fp)
   815c4:	10c00117 	ldw	r3,4(r2)
   815c8:	e0bff717 	ldw	r2,-36(fp)
   815cc:	1887883a 	add	r3,r3,r2
   815d0:	e0bffe17 	ldw	r2,-8(fp)
   815d4:	10800317 	ldw	r2,12(r2)
   815d8:	e13ff517 	ldw	r4,-44(fp)
   815dc:	180b883a 	mov	r5,r3
   815e0:	100d883a 	mov	r6,r2
   815e4:	e1ffff17 	ldw	r7,-4(fp)
   815e8:	0081b140 	call	81b14 <vid_set_pixel>
   815ec:	00000b06 	br	8161c <vid_scroll_string+0x2ec>
        // Otherwise, set it to the background color.
        } else {
          vid_set_pixel(x_index, scroll->vbegin + char_row, scroll->b_color, display); //background color
   815f0:	e0bffe17 	ldw	r2,-8(fp)
   815f4:	10c00117 	ldw	r3,4(r2)
   815f8:	e0bff717 	ldw	r2,-36(fp)
   815fc:	1887883a 	add	r3,r3,r2
   81600:	e0bffe17 	ldw	r2,-8(fp)
   81604:	10800417 	ldw	r2,16(r2)
   81608:	e13ff517 	ldw	r4,-44(fp)
   8160c:	180b883a 	mov	r5,r3
   81610:	100d883a 	mov	r6,r2
   81614:	e1ffff17 	ldw	r7,-4(fp)
   81618:	0081b140 	call	81b14 <vid_set_pixel>
      character = scroll->string[string_char_index];
      char_column = (string_x_index % 8);
      column_mask = (((unsigned int)0x80) >> char_column);
      font_char_ptr = (scroll->font + ((character - 0x20) * FONT_10PT_ROW));
      //We have all the data now, so let's write a column
      for(char_row = 0; char_row < 11; char_row++) {
   8161c:	e0bff717 	ldw	r2,-36(fp)
   81620:	10800044 	addi	r2,r2,1
   81624:	e0bff715 	stw	r2,-36(fp)
   81628:	e0bff717 	ldw	r2,-36(fp)
   8162c:	108002d0 	cmplti	r2,r2,11
   81630:	103fd91e 	bne	r2,zero,81598 <vid_scroll_string+0x268>
    } else {
      x_end = (scroll->hend - scroll->text_scroll_index + scroll->string_points);
    }

    // Write the string segment a column (x) at a time
    for(x_index = x_start; x_index < x_end; x_index++) {
   81634:	e0bff517 	ldw	r2,-44(fp)
   81638:	10800044 	addi	r2,r2,1
   8163c:	e0bff515 	stw	r2,-44(fp)
   81640:	e0fff517 	ldw	r3,-44(fp)
   81644:	e0bff417 	ldw	r2,-48(fp)
   81648:	18bf9d16 	blt	r3,r2,814c0 <vid_scroll_string+0x190>
          vid_set_pixel(x_index, scroll->vbegin + char_row, scroll->b_color, display); //background color
        }
      }
    }
    // Erase the leftover column (x) of the last string we wrote.
    vid_draw_line(x_end, scroll->vbegin, x_end, scroll->vbegin + 10, 1, scroll->b_color, display);
   8164c:	e0bffe17 	ldw	r2,-8(fp)
   81650:	10c00117 	ldw	r3,4(r2)
   81654:	e0bffe17 	ldw	r2,-8(fp)
   81658:	10800117 	ldw	r2,4(r2)
   8165c:	10800284 	addi	r2,r2,10
   81660:	e13ffe17 	ldw	r4,-8(fp)
   81664:	21000417 	ldw	r4,16(r4)
   81668:	01400044 	movi	r5,1
   8166c:	d9400015 	stw	r5,0(sp)
   81670:	d9000115 	stw	r4,4(sp)
   81674:	e13fff17 	ldw	r4,-4(fp)
   81678:	d9000215 	stw	r4,8(sp)
   8167c:	e13ff417 	ldw	r4,-48(fp)
   81680:	180b883a 	mov	r5,r3
   81684:	e1bff417 	ldw	r6,-48(fp)
   81688:	100f883a 	mov	r7,r2
   8168c:	00810d00 	call	810d0 <vid_draw_line>
    // Log what time we moved the scroll.
  }
  return(0);
   81690:	0005883a 	mov	r2,zero
}
   81694:	e037883a 	mov	sp,fp
   81698:	dfc00317 	ldw	ra,12(sp)
   8169c:	df000217 	ldw	fp,8(sp)
   816a0:	dc400117 	ldw	r17,4(sp)
   816a4:	dc000017 	ldw	r16,0(sp)
   816a8:	dec00404 	addi	sp,sp,16
   816ac:	f800283a 	ret

000816b0 <vid_move_block>:
*           the backfill_color parameter.
*
******************************************************************/

int vid_move_block(int xbegin, int ybegin, int xend, int yend, int x_distance, int y_distance, int backfill_color, alt_video_display* display)
{
   816b0:	defff504 	addi	sp,sp,-44
   816b4:	dfc00a15 	stw	ra,40(sp)
   816b8:	df000915 	stw	fp,36(sp)
   816bc:	df000904 	addi	fp,sp,36
   816c0:	e13ffc15 	stw	r4,-16(fp)
   816c4:	e17ffd15 	stw	r5,-12(fp)
   816c8:	e1bffe15 	stw	r6,-8(fp)
   816cc:	e1ffff15 	stw	r7,-4(fp)
  int read_x, read_y, write_x, write_y;
  short temp_pixel;
  
  if(x_distance <= 0 && y_distance <= 0) {  
   816d0:	e0800217 	ldw	r2,8(fp)
   816d4:	00803716 	blt	zero,r2,817b4 <vid_move_block+0x104>
   816d8:	e0800317 	ldw	r2,12(fp)
   816dc:	00803516 	blt	zero,r2,817b4 <vid_move_block+0x104>
    //Move by rows because they are contiguous in memory (could help speed if in SDRAM)
    for (read_y = ybegin; read_y < yend; read_y++) {
   816e0:	e0bffd17 	ldw	r2,-12(fp)
   816e4:	e0bff815 	stw	r2,-32(fp)
   816e8:	00002f06 	br	817a8 <vid_move_block+0xf8>
      write_y = read_y + y_distance;
   816ec:	e0fff817 	ldw	r3,-32(fp)
   816f0:	e0800317 	ldw	r2,12(fp)
   816f4:	1885883a 	add	r2,r3,r2
   816f8:	e0bff915 	stw	r2,-28(fp)
      for(read_x = xbegin; read_x < xend; read_x++) {
   816fc:	e0bffc17 	ldw	r2,-16(fp)
   81700:	e0bff715 	stw	r2,-36(fp)
   81704:	00002206 	br	81790 <vid_move_block+0xe0>
        write_x = read_x + x_distance;
   81708:	e0fff717 	ldw	r3,-36(fp)
   8170c:	e0800217 	ldw	r2,8(fp)
   81710:	1885883a 	add	r2,r3,r2
   81714:	e0bffa15 	stw	r2,-24(fp)
        temp_pixel = vid_get_pixel(read_x, read_y, display);
   81718:	e13ff717 	ldw	r4,-36(fp)
   8171c:	e17ff817 	ldw	r5,-32(fp)
   81720:	e1800517 	ldw	r6,20(fp)
   81724:	0081bb00 	call	81bb0 <vid_get_pixel>
   81728:	e0bffb0d 	sth	r2,-20(fp)
        vid_set_pixel(write_x, write_y, temp_pixel, display);
   8172c:	e0bffb0f 	ldh	r2,-20(fp)
   81730:	e13ffa17 	ldw	r4,-24(fp)
   81734:	e17ff917 	ldw	r5,-28(fp)
   81738:	100d883a 	mov	r6,r2
   8173c:	e1c00517 	ldw	r7,20(fp)
   81740:	0081b140 	call	81b14 <vid_set_pixel>
        if(read_x >= xend + x_distance || read_y >= yend + y_distance) 
   81744:	e0fffe17 	ldw	r3,-8(fp)
   81748:	e0800217 	ldw	r2,8(fp)
   8174c:	1885883a 	add	r2,r3,r2
   81750:	e0fff717 	ldw	r3,-36(fp)
   81754:	1880050e 	bge	r3,r2,8176c <vid_move_block+0xbc>
   81758:	e0ffff17 	ldw	r3,-4(fp)
   8175c:	e0800317 	ldw	r2,12(fp)
   81760:	1885883a 	add	r2,r3,r2
   81764:	e0fff817 	ldw	r3,-32(fp)
   81768:	18800616 	blt	r3,r2,81784 <vid_move_block+0xd4>
        {
	        vid_set_pixel(read_x, read_y, backfill_color, display);
   8176c:	e0800417 	ldw	r2,16(fp)
   81770:	e13ff717 	ldw	r4,-36(fp)
   81774:	e17ff817 	ldw	r5,-32(fp)
   81778:	100d883a 	mov	r6,r2
   8177c:	e1c00517 	ldw	r7,20(fp)
   81780:	0081b140 	call	81b14 <vid_set_pixel>
  
  if(x_distance <= 0 && y_distance <= 0) {  
    //Move by rows because they are contiguous in memory (could help speed if in SDRAM)
    for (read_y = ybegin; read_y < yend; read_y++) {
      write_y = read_y + y_distance;
      for(read_x = xbegin; read_x < xend; read_x++) {
   81784:	e0bff717 	ldw	r2,-36(fp)
   81788:	10800044 	addi	r2,r2,1
   8178c:	e0bff715 	stw	r2,-36(fp)
   81790:	e0fff717 	ldw	r3,-36(fp)
   81794:	e0bffe17 	ldw	r2,-8(fp)
   81798:	18bfdb16 	blt	r3,r2,81708 <vid_move_block+0x58>
  int read_x, read_y, write_x, write_y;
  short temp_pixel;
  
  if(x_distance <= 0 && y_distance <= 0) {  
    //Move by rows because they are contiguous in memory (could help speed if in SDRAM)
    for (read_y = ybegin; read_y < yend; read_y++) {
   8179c:	e0bff817 	ldw	r2,-32(fp)
   817a0:	10800044 	addi	r2,r2,1
   817a4:	e0bff815 	stw	r2,-32(fp)
   817a8:	e0fff817 	ldw	r3,-32(fp)
   817ac:	e0bfff17 	ldw	r2,-4(fp)
   817b0:	18bfce16 	blt	r3,r2,816ec <vid_move_block+0x3c>
	        vid_set_pixel(read_x, read_y, backfill_color, display);
        }
      }
    }
  }
  return (0);
   817b4:	0005883a 	mov	r2,zero
}
   817b8:	e037883a 	mov	sp,fp
   817bc:	dfc00117 	ldw	ra,4(sp)
   817c0:	df000017 	ldw	fp,0(sp)
   817c4:	dec00204 	addi	sp,sp,8
   817c8:	f800283a 	ret

000817cc <vid_print_string>:
*           using the specified font and color.
*           Calls vid_print_char
*
******************************************************************/
int vid_print_string(int horiz_offset, int vert_offset, int color, char *font, alt_video_display* display, char string[])
{
   817cc:	defff604 	addi	sp,sp,-40
   817d0:	dfc00915 	stw	ra,36(sp)
   817d4:	df000815 	stw	fp,32(sp)
   817d8:	df000804 	addi	fp,sp,32
   817dc:	e13ffc15 	stw	r4,-16(fp)
   817e0:	e17ffd15 	stw	r5,-12(fp)
   817e4:	e1bffe15 	stw	r6,-8(fp)
   817e8:	e1ffff15 	stw	r7,-4(fp)
  int i = 0;
   817ec:	e03ffa15 	stw	zero,-24(fp)
  int original_horiz_offset;

  original_horiz_offset = horiz_offset;
   817f0:	e0bffc17 	ldw	r2,-16(fp)
   817f4:	e0bffb15 	stw	r2,-20(fp)

  // Print until we hit the '\0' char.
  while (string[i]) {
   817f8:	00002806 	br	8189c <vid_print_string+0xd0>
    //Handle newline char here.
    if (string[i] == '\n') {
   817fc:	e0bffa17 	ldw	r2,-24(fp)
   81800:	e0c00317 	ldw	r3,12(fp)
   81804:	1885883a 	add	r2,r3,r2
   81808:	10800003 	ldbu	r2,0(r2)
   8180c:	10803fcc 	andi	r2,r2,255
   81810:	1080201c 	xori	r2,r2,128
   81814:	10bfe004 	addi	r2,r2,-128
   81818:	10800298 	cmpnei	r2,r2,10
   8181c:	1000091e 	bne	r2,zero,81844 <vid_print_string+0x78>
      horiz_offset = original_horiz_offset;
   81820:	e0bffb17 	ldw	r2,-20(fp)
   81824:	e0bffc15 	stw	r2,-16(fp)
      vert_offset += 12;
   81828:	e0bffd17 	ldw	r2,-12(fp)
   8182c:	10800304 	addi	r2,r2,12
   81830:	e0bffd15 	stw	r2,-12(fp)
      i++;
   81834:	e0bffa17 	ldw	r2,-24(fp)
   81838:	10800044 	addi	r2,r2,1
   8183c:	e0bffa15 	stw	r2,-24(fp)
      continue;
   81840:	00001606 	br	8189c <vid_print_string+0xd0>
    }
    // Lay down that character and increment our offsets.
    vid_print_char (horiz_offset, vert_offset, color, string[i], font, display);
   81844:	e0bffa17 	ldw	r2,-24(fp)
   81848:	e0c00317 	ldw	r3,12(fp)
   8184c:	1885883a 	add	r2,r3,r2
   81850:	10800003 	ldbu	r2,0(r2)
   81854:	10803fcc 	andi	r2,r2,255
   81858:	1080201c 	xori	r2,r2,128
   8185c:	10bfe004 	addi	r2,r2,-128
   81860:	e0ffff17 	ldw	r3,-4(fp)
   81864:	d8c00015 	stw	r3,0(sp)
   81868:	e0c00217 	ldw	r3,8(fp)
   8186c:	d8c00115 	stw	r3,4(sp)
   81870:	e13ffc17 	ldw	r4,-16(fp)
   81874:	e17ffd17 	ldw	r5,-12(fp)
   81878:	e1bffe17 	ldw	r6,-8(fp)
   8187c:	100f883a 	mov	r7,r2
   81880:	0081a240 	call	81a24 <vid_print_char>
    i++;
   81884:	e0bffa17 	ldw	r2,-24(fp)
   81888:	10800044 	addi	r2,r2,1
   8188c:	e0bffa15 	stw	r2,-24(fp)
    horiz_offset += 8;
   81890:	e0bffc17 	ldw	r2,-16(fp)
   81894:	10800204 	addi	r2,r2,8
   81898:	e0bffc15 	stw	r2,-16(fp)
  int original_horiz_offset;

  original_horiz_offset = horiz_offset;

  // Print until we hit the '\0' char.
  while (string[i]) {
   8189c:	e0bffa17 	ldw	r2,-24(fp)
   818a0:	e0c00317 	ldw	r3,12(fp)
   818a4:	1885883a 	add	r2,r3,r2
   818a8:	10800003 	ldbu	r2,0(r2)
   818ac:	10803fcc 	andi	r2,r2,255
   818b0:	1080201c 	xori	r2,r2,128
   818b4:	10bfe004 	addi	r2,r2,-128
   818b8:	103fd01e 	bne	r2,zero,817fc <vid_print_string+0x30>
    // Lay down that character and increment our offsets.
    vid_print_char (horiz_offset, vert_offset, color, string[i], font, display);
    i++;
    horiz_offset += 8;
  }
  return (0);
   818bc:	0005883a 	mov	r2,zero
}
   818c0:	e037883a 	mov	sp,fp
   818c4:	dfc00117 	ldw	ra,4(sp)
   818c8:	df000017 	ldw	fp,0(sp)
   818cc:	dec00204 	addi	sp,sp,8
   818d0:	f800283a 	ret

000818d4 <vid_draw_box>:
*  points.  The fill parameter tells the function whether or not
*  to fill in the box.  1 = fill, 0 = do not fill.
*
******************************************************************/
int vid_draw_box (int horiz_start, int vert_start, int horiz_end, int vert_end, int color, int fill, alt_video_display* display)
{
   818d4:	defff704 	addi	sp,sp,-36
   818d8:	dfc00815 	stw	ra,32(sp)
   818dc:	df000715 	stw	fp,28(sp)
   818e0:	df000704 	addi	fp,sp,28
   818e4:	e13ffc15 	stw	r4,-16(fp)
   818e8:	e17ffd15 	stw	r5,-12(fp)
   818ec:	e1bffe15 	stw	r6,-8(fp)
   818f0:	e1ffff15 	stw	r7,-4(fp)

  // If we want to fill in our box
  if (fill) {
   818f4:	e0800317 	ldw	r2,12(fp)
   818f8:	10000a26 	beq	r2,zero,81924 <vid_draw_box+0x50>
     vid_paint_block (horiz_start, vert_start, horiz_end, vert_end, color, display);
   818fc:	e0800217 	ldw	r2,8(fp)
   81900:	d8800015 	stw	r2,0(sp)
   81904:	e0800417 	ldw	r2,16(fp)
   81908:	d8800115 	stw	r2,4(sp)
   8190c:	e13ffc17 	ldw	r4,-16(fp)
   81910:	e17ffd17 	ldw	r5,-12(fp)
   81914:	e1bffe17 	ldw	r6,-8(fp)
   81918:	e1ffff17 	ldw	r7,-4(fp)
   8191c:	0081bec0 	call	81bec <vid_paint_block>
   81920:	00003a06 	br	81a0c <vid_draw_box+0x138>
  // If we're not filling in the box, just draw four lines.
  } else {
    vid_draw_line(horiz_start, vert_start, horiz_start, vert_end-1, 1, color, display);
   81924:	e0bfff17 	ldw	r2,-4(fp)
   81928:	10bfffc4 	addi	r2,r2,-1
   8192c:	00c00044 	movi	r3,1
   81930:	d8c00015 	stw	r3,0(sp)
   81934:	e0c00217 	ldw	r3,8(fp)
   81938:	d8c00115 	stw	r3,4(sp)
   8193c:	e0c00417 	ldw	r3,16(fp)
   81940:	d8c00215 	stw	r3,8(sp)
   81944:	e13ffc17 	ldw	r4,-16(fp)
   81948:	e17ffd17 	ldw	r5,-12(fp)
   8194c:	e1bffc17 	ldw	r6,-16(fp)
   81950:	100f883a 	mov	r7,r2
   81954:	00810d00 	call	810d0 <vid_draw_line>
    vid_draw_line(horiz_end-1, vert_start, horiz_end-1, vert_end-1, 1, color, display);
   81958:	e0bffe17 	ldw	r2,-8(fp)
   8195c:	113fffc4 	addi	r4,r2,-1
   81960:	e0bffe17 	ldw	r2,-8(fp)
   81964:	10ffffc4 	addi	r3,r2,-1
   81968:	e0bfff17 	ldw	r2,-4(fp)
   8196c:	10bfffc4 	addi	r2,r2,-1
   81970:	01400044 	movi	r5,1
   81974:	d9400015 	stw	r5,0(sp)
   81978:	e1400217 	ldw	r5,8(fp)
   8197c:	d9400115 	stw	r5,4(sp)
   81980:	e1400417 	ldw	r5,16(fp)
   81984:	d9400215 	stw	r5,8(sp)
   81988:	e17ffd17 	ldw	r5,-12(fp)
   8198c:	180d883a 	mov	r6,r3
   81990:	100f883a 	mov	r7,r2
   81994:	00810d00 	call	810d0 <vid_draw_line>
    vid_draw_line(horiz_start, vert_start, horiz_end-1, vert_start, 1, color, display);
   81998:	e0bffe17 	ldw	r2,-8(fp)
   8199c:	10bfffc4 	addi	r2,r2,-1
   819a0:	00c00044 	movi	r3,1
   819a4:	d8c00015 	stw	r3,0(sp)
   819a8:	e0c00217 	ldw	r3,8(fp)
   819ac:	d8c00115 	stw	r3,4(sp)
   819b0:	e0c00417 	ldw	r3,16(fp)
   819b4:	d8c00215 	stw	r3,8(sp)
   819b8:	e13ffc17 	ldw	r4,-16(fp)
   819bc:	e17ffd17 	ldw	r5,-12(fp)
   819c0:	100d883a 	mov	r6,r2
   819c4:	e1fffd17 	ldw	r7,-12(fp)
   819c8:	00810d00 	call	810d0 <vid_draw_line>
    vid_draw_line(horiz_start, vert_end-1, horiz_end-1, vert_end-1, 1, color, display);
   819cc:	e0bfff17 	ldw	r2,-4(fp)
   819d0:	117fffc4 	addi	r5,r2,-1
   819d4:	e0bffe17 	ldw	r2,-8(fp)
   819d8:	10ffffc4 	addi	r3,r2,-1
   819dc:	e0bfff17 	ldw	r2,-4(fp)
   819e0:	10bfffc4 	addi	r2,r2,-1
   819e4:	01000044 	movi	r4,1
   819e8:	d9000015 	stw	r4,0(sp)
   819ec:	e1000217 	ldw	r4,8(fp)
   819f0:	d9000115 	stw	r4,4(sp)
   819f4:	e1000417 	ldw	r4,16(fp)
   819f8:	d9000215 	stw	r4,8(sp)
   819fc:	e13ffc17 	ldw	r4,-16(fp)
   81a00:	180d883a 	mov	r6,r3
   81a04:	100f883a 	mov	r7,r2
   81a08:	00810d00 	call	810d0 <vid_draw_line>
  }

  return (0);
   81a0c:	0005883a 	mov	r2,zero
}
   81a10:	e037883a 	mov	sp,fp
   81a14:	dfc00117 	ldw	ra,4(sp)
   81a18:	df000017 	ldw	fp,0(sp)
   81a1c:	dec00204 	addi	sp,sp,8
   81a20:	f800283a 	ret

00081a24 <vid_print_char>:
*           screen using the specified font and color.
*
******************************************************************/

int vid_print_char (int horiz_offset, int vert_offset, int color, char character, char *font, alt_video_display* display)
{
   81a24:	defff704 	addi	sp,sp,-36
   81a28:	dfc00815 	stw	ra,32(sp)
   81a2c:	df000715 	stw	fp,28(sp)
   81a30:	df000704 	addi	fp,sp,28
   81a34:	e13ffc15 	stw	r4,-16(fp)
   81a38:	e17ffd15 	stw	r5,-12(fp)
   81a3c:	e1bffe15 	stw	r6,-8(fp)
   81a40:	3805883a 	mov	r2,r7
   81a44:	e0bfff05 	stb	r2,-4(fp)
  int i, j;
  
  char temp_char, char_row;

  // Convert the ASCII value to an array offset
  temp_char = (character - 0x20);
   81a48:	e0bfff03 	ldbu	r2,-4(fp)
   81a4c:	10bff804 	addi	r2,r2,-32
   81a50:	e0bffb05 	stb	r2,-20(fp)

  //Each character is 8 pixels wide and 11 tall.
  for(i = 0; i < 11; i++) {
   81a54:	e03ff915 	stw	zero,-28(fp)
   81a58:	00002506 	br	81af0 <vid_print_char+0xcc>
      char_row = *(font + (temp_char * FONT_10PT_ROW) + i);
   81a5c:	e0bffb07 	ldb	r2,-20(fp)
   81a60:	108002e4 	muli	r2,r2,11
   81a64:	1007883a 	mov	r3,r2
   81a68:	e0bff917 	ldw	r2,-28(fp)
   81a6c:	1885883a 	add	r2,r3,r2
   81a70:	e0c00217 	ldw	r3,8(fp)
   81a74:	1885883a 	add	r2,r3,r2
   81a78:	10800003 	ldbu	r2,0(r2)
   81a7c:	e0bffb45 	stb	r2,-19(fp)
    for (j = 0; j < 8; j++) {
   81a80:	e03ffa15 	stw	zero,-24(fp)
   81a84:	00001406 	br	81ad8 <vid_print_char+0xb4>
      //If the font table says the pixel in this location is on for this character, then set it.
      if (char_row & (((unsigned char)0x80) >> j)) {
   81a88:	e0fffb47 	ldb	r3,-19(fp)
   81a8c:	01002004 	movi	r4,128
   81a90:	e0bffa17 	ldw	r2,-24(fp)
   81a94:	2085d83a 	sra	r2,r4,r2
   81a98:	1884703a 	and	r2,r3,r2
   81a9c:	10000b26 	beq	r2,zero,81acc <vid_print_char+0xa8>
        vid_set_pixel((horiz_offset + j), (vert_offset + i), color, display); // plot the pixel
   81aa0:	e0fffc17 	ldw	r3,-16(fp)
   81aa4:	e0bffa17 	ldw	r2,-24(fp)
   81aa8:	1889883a 	add	r4,r3,r2
   81aac:	e0fffd17 	ldw	r3,-12(fp)
   81ab0:	e0bff917 	ldw	r2,-28(fp)
   81ab4:	1887883a 	add	r3,r3,r2
   81ab8:	e0bffe17 	ldw	r2,-8(fp)
   81abc:	180b883a 	mov	r5,r3
   81ac0:	100d883a 	mov	r6,r2
   81ac4:	e1c00317 	ldw	r7,12(fp)
   81ac8:	0081b140 	call	81b14 <vid_set_pixel>
  temp_char = (character - 0x20);

  //Each character is 8 pixels wide and 11 tall.
  for(i = 0; i < 11; i++) {
      char_row = *(font + (temp_char * FONT_10PT_ROW) + i);
    for (j = 0; j < 8; j++) {
   81acc:	e0bffa17 	ldw	r2,-24(fp)
   81ad0:	10800044 	addi	r2,r2,1
   81ad4:	e0bffa15 	stw	r2,-24(fp)
   81ad8:	e0bffa17 	ldw	r2,-24(fp)
   81adc:	10800210 	cmplti	r2,r2,8
   81ae0:	103fe91e 	bne	r2,zero,81a88 <vid_print_char+0x64>

  // Convert the ASCII value to an array offset
  temp_char = (character - 0x20);

  //Each character is 8 pixels wide and 11 tall.
  for(i = 0; i < 11; i++) {
   81ae4:	e0bff917 	ldw	r2,-28(fp)
   81ae8:	10800044 	addi	r2,r2,1
   81aec:	e0bff915 	stw	r2,-28(fp)
   81af0:	e0bff917 	ldw	r2,-28(fp)
   81af4:	108002d0 	cmplti	r2,r2,11
   81af8:	103fd81e 	bne	r2,zero,81a5c <vid_print_char+0x38>
      if (char_row & (((unsigned char)0x80) >> j)) {
        vid_set_pixel((horiz_offset + j), (vert_offset + i), color, display); // plot the pixel
      }
    }
  }
  return(0);
   81afc:	0005883a 	mov	r2,zero
}
   81b00:	e037883a 	mov	sp,fp
   81b04:	dfc00117 	ldw	ra,4(sp)
   81b08:	df000017 	ldw	fp,0(sp)
   81b0c:	dec00204 	addi	sp,sp,8
   81b10:	f800283a 	ret

00081b14 <vid_set_pixel>:
*           efficient when painting large areas of the screen.
*
******************************************************************/

void vid_set_pixel(int horiz, int vert, unsigned int color, alt_video_display* display)
{
   81b14:	defff904 	addi	sp,sp,-28
   81b18:	dfc00615 	stw	ra,24(sp)
   81b1c:	df000515 	stw	fp,20(sp)
   81b20:	df000504 	addi	fp,sp,20
   81b24:	e13ffc15 	stw	r4,-16(fp)
   81b28:	e17ffd15 	stw	r5,-12(fp)
   81b2c:	e1bffe15 	stw	r6,-8(fp)
   81b30:	e1ffff15 	stw	r7,-4(fp)
#ifdef LT24
	alt_u16 color16;


	// encode to RGB  5 6 5
	color16 = (color & 0xFF) >> 3; // blue
   81b34:	e0bffe17 	ldw	r2,-8(fp)
   81b38:	10803fcc 	andi	r2,r2,255
   81b3c:	1004d0fa 	srli	r2,r2,3
   81b40:	e0bffb0d 	sth	r2,-20(fp)
	color16 |= (color & 0xFC00) >> 5; // green
   81b44:	e0bffe17 	ldw	r2,-8(fp)
   81b48:	10bf000c 	andi	r2,r2,64512
   81b4c:	1004d17a 	srli	r2,r2,5
   81b50:	1007883a 	mov	r3,r2
   81b54:	e0bffb0b 	ldhu	r2,-20(fp)
   81b58:	1884b03a 	or	r2,r3,r2
   81b5c:	e0bffb0d 	sth	r2,-20(fp)
	color16 |= (color & 0xF80000) >> 8; // blue
   81b60:	e0bffe17 	ldw	r2,-8(fp)
   81b64:	10803e2c 	andhi	r2,r2,248
   81b68:	1004d23a 	srli	r2,r2,8
   81b6c:	1007883a 	mov	r3,r2
   81b70:	e0bffb0b 	ldhu	r2,-20(fp)
   81b74:	1884b03a 	or	r2,r3,r2
   81b78:	e0bffb0d 	sth	r2,-20(fp)
	LCD_DrawPoint(horiz, vert, color16);
   81b7c:	e0bffc17 	ldw	r2,-16(fp)
   81b80:	113fffcc 	andi	r4,r2,65535
   81b84:	e0bffd17 	ldw	r2,-12(fp)
   81b88:	10ffffcc 	andi	r3,r2,65535
   81b8c:	e0bffb0b 	ldhu	r2,-20(fp)
   81b90:	180b883a 	mov	r5,r3
   81b94:	100d883a 	mov	r6,r2
   81b98:	00807800 	call	80780 <LCD_DrawPoint>
  	addr = ( ( (int)(VIPFR_GetDrawFrame(display)) )+ (vert * (display->width * 2)) + horiz * 2);
  	IOWR_16DIRECT( addr, 0, (int)(color));
	}
#endif

}
   81b9c:	e037883a 	mov	sp,fp
   81ba0:	dfc00117 	ldw	ra,4(sp)
   81ba4:	df000017 	ldw	fp,0(sp)
   81ba8:	dec00204 	addi	sp,sp,8
   81bac:	f800283a 	ret

00081bb0 <vid_get_pixel>:
*  Purpose: Reads the color of the pixel at the given coordinates
*
******************************************************************/

short vid_get_pixel(int horiz, int vert, alt_video_display* display)
{
   81bb0:	defffb04 	addi	sp,sp,-20
   81bb4:	dfc00415 	stw	ra,16(sp)
   81bb8:	df000315 	stw	fp,12(sp)
   81bbc:	df000304 	addi	fp,sp,12
   81bc0:	e13ffd15 	stw	r4,-12(fp)
   81bc4:	e17ffe15 	stw	r5,-8(fp)
   81bc8:	e1bfff15 	stw	r6,-4(fp)
#ifdef LT24
	printf("vid_get_pixel is not implemented\r\n");
   81bcc:	010002f4 	movhi	r4,11
   81bd0:	21354604 	addi	r4,r4,-10984
   81bd4:	00893440 	call	89344 <puts>
  int addr;
  
  addr = ( ( (int)(VIPFR_GetDrawFrame(display)) )+ (vert * (display->width * 2)) + horiz * 2);
  return(IORD_16DIRECT(addr, 0));
#endif
}
   81bd8:	e037883a 	mov	sp,fp
   81bdc:	dfc00117 	ldw	ra,4(sp)
   81be0:	df000017 	ldw	fp,0(sp)
   81be4:	dec00204 	addi	sp,sp,8
   81be8:	f800283a 	ret

00081bec <vid_paint_block>:
*           The color parameter must contain two pixel's worth
*           (32 bits).
*
******************************************************************/
void vid_paint_block (int Hstart,int Vstart, int Hend, int Vend, int color, alt_video_display* display)
{
   81bec:	defff804 	addi	sp,sp,-32
   81bf0:	dfc00715 	stw	ra,28(sp)
   81bf4:	df000615 	stw	fp,24(sp)
   81bf8:	df000604 	addi	fp,sp,24
   81bfc:	e13ffc15 	stw	r4,-16(fp)
   81c00:	e17ffd15 	stw	r5,-12(fp)
   81c04:	e1bffe15 	stw	r6,-8(fp)
   81c08:	e1ffff15 	stw	r7,-4(fp)
#ifdef LT24
	int x,y;
	for(y=Vstart;y<Vend;y++){
   81c0c:	e0bffd17 	ldw	r2,-12(fp)
   81c10:	e0bffb15 	stw	r2,-20(fp)
   81c14:	00001206 	br	81c60 <vid_paint_block+0x74>
		for(x=Hstart;x<Hend;x++){
   81c18:	e0bffc17 	ldw	r2,-16(fp)
   81c1c:	e0bffa15 	stw	r2,-24(fp)
   81c20:	00000906 	br	81c48 <vid_paint_block+0x5c>
			vid_set_pixel(x, y, color, display);
   81c24:	e0800217 	ldw	r2,8(fp)
   81c28:	e13ffa17 	ldw	r4,-24(fp)
   81c2c:	e17ffb17 	ldw	r5,-20(fp)
   81c30:	100d883a 	mov	r6,r2
   81c34:	e1c00317 	ldw	r7,12(fp)
   81c38:	0081b140 	call	81b14 <vid_set_pixel>
void vid_paint_block (int Hstart,int Vstart, int Hend, int Vend, int color, alt_video_display* display)
{
#ifdef LT24
	int x,y;
	for(y=Vstart;y<Vend;y++){
		for(x=Hstart;x<Hend;x++){
   81c3c:	e0bffa17 	ldw	r2,-24(fp)
   81c40:	10800044 	addi	r2,r2,1
   81c44:	e0bffa15 	stw	r2,-24(fp)
   81c48:	e0fffa17 	ldw	r3,-24(fp)
   81c4c:	e0bffe17 	ldw	r2,-8(fp)
   81c50:	18bff416 	blt	r3,r2,81c24 <vid_paint_block+0x38>
******************************************************************/
void vid_paint_block (int Hstart,int Vstart, int Hend, int Vend, int color, alt_video_display* display)
{
#ifdef LT24
	int x,y;
	for(y=Vstart;y<Vend;y++){
   81c54:	e0bffb17 	ldw	r2,-20(fp)
   81c58:	10800044 	addi	r2,r2,1
   81c5c:	e0bffb15 	stw	r2,-20(fp)
   81c60:	e0fffb17 	ldw	r3,-20(fp)
   81c64:	e0bfff17 	ldw	r2,-4(fp)
   81c68:	18bfeb16 	blt	r3,r2,81c18 <vid_paint_block+0x2c>
    memcpy( (void*)addr, line, bytes_per_line );
    addr += (display->width * bytes_per_pixel);
  }
  free (line);
#endif
}
   81c6c:	e037883a 	mov	sp,fp
   81c70:	dfc00117 	ldw	ra,4(sp)
   81c74:	df000017 	ldw	fp,0(sp)
   81c78:	dec00204 	addi	sp,sp,8
   81c7c:	f800283a 	ret

00081c80 <vid_draw_horiz_line>:
*  Purpose: Draws a horizontal line on the screen quickly.
*           Good for filling stuff.
*
******************************************************************/
void vid_draw_horiz_line (short Hstart, short Hend, int V, int color, alt_video_display* display)
{
   81c80:	defff904 	addi	sp,sp,-28
   81c84:	dfc00615 	stw	ra,24(sp)
   81c88:	df000515 	stw	fp,20(sp)
   81c8c:	df000504 	addi	fp,sp,20
   81c90:	2007883a 	mov	r3,r4
   81c94:	2805883a 	mov	r2,r5
   81c98:	e1bffe15 	stw	r6,-8(fp)
   81c9c:	e1ffff15 	stw	r7,-4(fp)
   81ca0:	e0fffc0d 	sth	r3,-16(fp)
   81ca4:	e0bffd0d 	sth	r2,-12(fp)
#ifdef LT24
	int x;
	for(x=Hstart;x<Hend;x++){
   81ca8:	e0bffc0f 	ldh	r2,-16(fp)
   81cac:	e0bffb15 	stw	r2,-20(fp)
   81cb0:	00000906 	br	81cd8 <vid_draw_horiz_line+0x58>
		vid_set_pixel(x, V, color, display);
   81cb4:	e0bfff17 	ldw	r2,-4(fp)
   81cb8:	e13ffb17 	ldw	r4,-20(fp)
   81cbc:	e17ffe17 	ldw	r5,-8(fp)
   81cc0:	100d883a 	mov	r6,r2
   81cc4:	e1c00217 	ldw	r7,8(fp)
   81cc8:	0081b140 	call	81b14 <vid_set_pixel>
******************************************************************/
void vid_draw_horiz_line (short Hstart, short Hend, int V, int color, alt_video_display* display)
{
#ifdef LT24
	int x;
	for(x=Hstart;x<Hend;x++){
   81ccc:	e0bffb17 	ldw	r2,-20(fp)
   81cd0:	10800044 	addi	r2,r2,1
   81cd4:	e0bffb15 	stw	r2,-20(fp)
   81cd8:	e0bffd0f 	ldh	r2,-12(fp)
   81cdc:	e0fffb17 	ldw	r3,-20(fp)
   81ce0:	18bff416 	blt	r3,r2,81cb4 <vid_draw_horiz_line+0x34>
    memcpy( (void*)addr, fast_buffer, bytes_per_line );
  }
  free(fast_buffer);
#endif

}
   81ce4:	e037883a 	mov	sp,fp
   81ce8:	dfc00117 	ldw	ra,4(sp)
   81cec:	df000017 	ldw	fp,0(sp)
   81cf0:	dec00204 	addi	sp,sp,8
   81cf4:	f800283a 	ret

00081cf8 <vid_merge_colors>:
*  Purpose: Takes 5-bit color values for each red, green, and blue
*           and merges them into one 16-bit color value.
*
******************************************************************/
int vid_merge_colors(int red, int green, int blue)
{
   81cf8:	defffc04 	addi	sp,sp,-16
   81cfc:	df000315 	stw	fp,12(sp)
   81d00:	df000304 	addi	fp,sp,12
   81d04:	e13ffd15 	stw	r4,-12(fp)
   81d08:	e17ffe15 	stw	r5,-8(fp)
   81d0c:	e1bfff15 	stw	r6,-4(fp)
  // Green actually has 6-bits, but we'll make it's LSB 1 to be consistent.
  return ((blue) | (((green << 1) | 0x1) << 5) | (red << 11));
   81d10:	e0bffe17 	ldw	r2,-8(fp)
   81d14:	1085883a 	add	r2,r2,r2
   81d18:	10800054 	ori	r2,r2,1
   81d1c:	1006917a 	slli	r3,r2,5
   81d20:	e0bfff17 	ldw	r2,-4(fp)
   81d24:	1886b03a 	or	r3,r3,r2
   81d28:	e0bffd17 	ldw	r2,-12(fp)
   81d2c:	100492fa 	slli	r2,r2,11
   81d30:	1884b03a 	or	r2,r3,r2
}
   81d34:	e037883a 	mov	sp,fp
   81d38:	df000017 	ldw	fp,0(sp)
   81d3c:	dec00104 	addi	sp,sp,4
   81d40:	f800283a 	ret

00081d44 <vid_color_convert24_16>:
*           sample and converts it to 16-bits, displayable by the 
*           VGA controller in 16-bit mode
*
******************************************************************/
unsigned short vid_color_convert24_16(char* color24)
{
   81d44:	defffc04 	addi	sp,sp,-16
   81d48:	df000315 	stw	fp,12(sp)
   81d4c:	df000304 	addi	fp,sp,12
   81d50:	e13fff15 	stw	r4,-4(fp)
	unsigned char red, green, blue;
	unsigned short output;
	
	red = *(color24 + 0) & 0xF8;
   81d54:	e0bfff17 	ldw	r2,-4(fp)
   81d58:	10800003 	ldbu	r2,0(r2)
   81d5c:	1007883a 	mov	r3,r2
   81d60:	00bffe04 	movi	r2,-8
   81d64:	1884703a 	and	r2,r3,r2
   81d68:	e0bffd05 	stb	r2,-12(fp)
	green = *(color24 + 1) & 0xFC; // green is actualy 6 bits
   81d6c:	e0bfff17 	ldw	r2,-4(fp)
   81d70:	10800044 	addi	r2,r2,1
   81d74:	10800003 	ldbu	r2,0(r2)
   81d78:	1007883a 	mov	r3,r2
   81d7c:	00bfff04 	movi	r2,-4
   81d80:	1884703a 	and	r2,r3,r2
   81d84:	e0bffd45 	stb	r2,-11(fp)
	blue = *(color24 + 2) & 0xF8;
   81d88:	e0bfff17 	ldw	r2,-4(fp)
   81d8c:	10800084 	addi	r2,r2,2
   81d90:	10800003 	ldbu	r2,0(r2)
   81d94:	1007883a 	mov	r3,r2
   81d98:	00bffe04 	movi	r2,-8
   81d9c:	1884703a 	and	r2,r3,r2
   81da0:	e0bffd85 	stb	r2,-10(fp)

	output = ((blue >> 3) | (green << 3) | (red << 8));  
   81da4:	e0bffd83 	ldbu	r2,-10(fp)
   81da8:	1004d0fa 	srli	r2,r2,3
   81dac:	10c03fcc 	andi	r3,r2,255
   81db0:	e0bffd43 	ldbu	r2,-11(fp)
   81db4:	100490fa 	slli	r2,r2,3
   81db8:	1884b03a 	or	r2,r3,r2
   81dbc:	1007883a 	mov	r3,r2
   81dc0:	e0bffd03 	ldbu	r2,-12(fp)
   81dc4:	1004923a 	slli	r2,r2,8
   81dc8:	1884b03a 	or	r2,r3,r2
   81dcc:	e0bffe0d 	sth	r2,-8(fp)
	return output;
   81dd0:	e0bffe0b 	ldhu	r2,-8(fp)
}
   81dd4:	e037883a 	mov	sp,fp
   81dd8:	df000017 	ldw	fp,0(sp)
   81ddc:	dec00104 	addi	sp,sp,4
   81de0:	f800283a 	ret

00081de4 <vid_color_convert16_24>:
*           sample and converts it to 16-bits, displayable by the 
*           VGA controller in 16-bit mode
*
******************************************************************/
int vid_color_convert16_24(unsigned short color16, char* color24)
{
   81de4:	defffd04 	addi	sp,sp,-12
   81de8:	df000215 	stw	fp,8(sp)
   81dec:	df000204 	addi	fp,sp,8
   81df0:	2005883a 	mov	r2,r4
   81df4:	e17fff15 	stw	r5,-4(fp)
   81df8:	e0bffe0d 	sth	r2,-8(fp)
	*(color24 + 0) = color16 >> 11;
   81dfc:	e0bffe0b 	ldhu	r2,-8(fp)
   81e00:	1004d2fa 	srli	r2,r2,11
   81e04:	1007883a 	mov	r3,r2
   81e08:	e0bfff17 	ldw	r2,-4(fp)
   81e0c:	10c00005 	stb	r3,0(r2)
	*(color24 + 1) = ((color16 & 0x3E) >> 5);
   81e10:	e0bfff17 	ldw	r2,-4(fp)
   81e14:	10800044 	addi	r2,r2,1
   81e18:	e0fffe0b 	ldhu	r3,-8(fp)
   81e1c:	18c00f8c 	andi	r3,r3,62
   81e20:	1807d17a 	srai	r3,r3,5
   81e24:	10c00005 	stb	r3,0(r2)
	*(color24 + 2) = (color16 & 0x1F);
   81e28:	e0bfff17 	ldw	r2,-4(fp)
   81e2c:	10800084 	addi	r2,r2,2
   81e30:	e0fffe0b 	ldhu	r3,-8(fp)
   81e34:	18c007cc 	andi	r3,r3,31
   81e38:	10c00005 	stb	r3,0(r2)
	
	return (0);
   81e3c:	0005883a 	mov	r2,zero
}
   81e40:	e037883a 	mov	sp,fp
   81e44:	df000017 	ldw	fp,0(sp)
   81e48:	dec00104 	addi	sp,sp,4
   81e4c:	f800283a 	ret

00081e50 <vid_copy_line_to_frame_buffer>:
*           the specified coordinates.  Converts color depth if
*           necessary.
*
******************************************************************/
int vid_copy_line_to_frame_buffer( int x, int y, char* buffer, int num_pixels, int source_color_depth, alt_video_display* display )
{
   81e50:	defffa04 	addi	sp,sp,-24
   81e54:	dfc00515 	stw	ra,20(sp)
   81e58:	df000415 	stw	fp,16(sp)
   81e5c:	df000404 	addi	fp,sp,16
   81e60:	e13ffc15 	stw	r4,-16(fp)
   81e64:	e17ffd15 	stw	r5,-12(fp)
   81e68:	e1bffe15 	stw	r6,-8(fp)
   81e6c:	e1ffff15 	stw	r7,-4(fp)
#ifdef LT24
	printf("vid_copy_line_to_frame_buffer is not implemented!\r\n");
   81e70:	010002f4 	movhi	r4,11
   81e74:	21354f04 	addi	r4,r4,-10948
   81e78:	00893440 	call	89344 <puts>
      memcpy( (void*)dest_addr, (void*)buffer, bytes_in_line );
    }
  }
  return(0);
#endif
}
   81e7c:	e037883a 	mov	sp,fp
   81e80:	dfc00117 	ldw	ra,4(sp)
   81e84:	df000017 	ldw	fp,0(sp)
   81e88:	dec00204 	addi	sp,sp,8
   81e8c:	f800283a 	ret

00081e90 <vid_draw_sloped_line>:
                           unsigned short horiz_end, 
                           unsigned short vert_end, 
                           unsigned short width, 
                           int color, 
                           alt_video_display* display)
{
   81e90:	deffef04 	addi	sp,sp,-68
   81e94:	dfc01015 	stw	ra,64(sp)
   81e98:	df000f15 	stw	fp,60(sp)
   81e9c:	df000f04 	addi	fp,sp,60
   81ea0:	2011883a 	mov	r8,r4
   81ea4:	2809883a 	mov	r4,r5
   81ea8:	3007883a 	mov	r3,r6
   81eac:	3805883a 	mov	r2,r7
   81eb0:	e1400217 	ldw	r5,8(fp)
   81eb4:	e23ffb0d 	sth	r8,-20(fp)
   81eb8:	e13ffc0d 	sth	r4,-16(fp)
   81ebc:	e0fffd0d 	sth	r3,-12(fp)
   81ec0:	e0bffe0d 	sth	r2,-8(fp)
   81ec4:	e17fff0d 	sth	r5,-4(fp)
  // Find the vertical and horizontal distance between the two points
  int horiz_delta = abs(horiz_end-horiz_start);
   81ec8:	e0fffd0b 	ldhu	r3,-12(fp)
   81ecc:	e0bffb0b 	ldhu	r2,-20(fp)
   81ed0:	1885c83a 	sub	r2,r3,r2
   81ed4:	1000010e 	bge	r2,zero,81edc <vid_draw_sloped_line+0x4c>
   81ed8:	0085c83a 	sub	r2,zero,r2
   81edc:	e0bff115 	stw	r2,-60(fp)
  int vert_delta = abs(vert_end-vert_start);
   81ee0:	e0fffe0b 	ldhu	r3,-8(fp)
   81ee4:	e0bffc0b 	ldhu	r2,-16(fp)
   81ee8:	1885c83a 	sub	r2,r3,r2
   81eec:	1000010e 	bge	r2,zero,81ef4 <vid_draw_sloped_line+0x64>
   81ef0:	0085c83a 	sub	r2,zero,r2
   81ef4:	e0bff215 	stw	r2,-56(fp)

  // Find out what direction we are going
  int horiz_incr, vert_incr;
  if (horiz_start > horiz_end) { horiz_incr=-1; } else { horiz_incr=1; }
   81ef8:	e0bffb0b 	ldhu	r2,-20(fp)
   81efc:	e0fffd0b 	ldhu	r3,-12(fp)
   81f00:	1880032e 	bgeu	r3,r2,81f10 <vid_draw_sloped_line+0x80>
   81f04:	00bfffc4 	movi	r2,-1
   81f08:	e0bff315 	stw	r2,-52(fp)
   81f0c:	00000206 	br	81f18 <vid_draw_sloped_line+0x88>
   81f10:	00800044 	movi	r2,1
   81f14:	e0bff315 	stw	r2,-52(fp)
  if (vert_start > vert_end) { vert_incr=-1; } else { vert_incr=1; }
   81f18:	e0bffc0b 	ldhu	r2,-16(fp)
   81f1c:	e0fffe0b 	ldhu	r3,-8(fp)
   81f20:	1880032e 	bgeu	r3,r2,81f30 <vid_draw_sloped_line+0xa0>
   81f24:	00bfffc4 	movi	r2,-1
   81f28:	e0bff415 	stw	r2,-48(fp)
   81f2c:	00000206 	br	81f38 <vid_draw_sloped_line+0xa8>
   81f30:	00800044 	movi	r2,1
   81f34:	e0bff415 	stw	r2,-48(fp)

  // Find out which axis is always incremented when drawing the line
  // If it's the horizontal axis
  if (horiz_delta >= vert_delta) {
   81f38:	e0fff117 	ldw	r3,-60(fp)
   81f3c:	e0bff217 	ldw	r2,-56(fp)
   81f40:	18803416 	blt	r3,r2,82014 <vid_draw_sloped_line+0x184>
    int dPr   = vert_delta<<1;
   81f44:	e0bff217 	ldw	r2,-56(fp)
   81f48:	1085883a 	add	r2,r2,r2
   81f4c:	e0bff715 	stw	r2,-36(fp)
    int dPru  = dPr - (horiz_delta<<1);
   81f50:	e0bff117 	ldw	r2,-60(fp)
   81f54:	1085883a 	add	r2,r2,r2
   81f58:	e0fff717 	ldw	r3,-36(fp)
   81f5c:	1885c83a 	sub	r2,r3,r2
   81f60:	e0bff815 	stw	r2,-32(fp)
    int P     = dPr - horiz_delta;
   81f64:	e0fff717 	ldw	r3,-36(fp)
   81f68:	e0bff117 	ldw	r2,-60(fp)
   81f6c:	1885c83a 	sub	r2,r3,r2
   81f70:	e0bff515 	stw	r2,-44(fp)

    // Process the line, one horizontal point at at time
    for (; horiz_delta >= 0; horiz_delta--) {
   81f74:	00002406 	br	82008 <vid_draw_sloped_line+0x178>
      // plot the pixel
      vid_set_pixel(horiz_start, vert_start, color, display);
   81f78:	e13ffb0b 	ldhu	r4,-20(fp)
   81f7c:	e0fffc0b 	ldhu	r3,-16(fp)
   81f80:	e0800317 	ldw	r2,12(fp)
   81f84:	180b883a 	mov	r5,r3
   81f88:	100d883a 	mov	r6,r2
   81f8c:	e1c00417 	ldw	r7,16(fp)
   81f90:	0081b140 	call	81b14 <vid_set_pixel>
      // If we're moving both up and right
      if (P > 0) {
   81f94:	e0bff517 	ldw	r2,-44(fp)
   81f98:	00800f0e 	bge	zero,r2,81fd8 <vid_draw_sloped_line+0x148>
        horiz_start+=horiz_incr;
   81f9c:	e0bff317 	ldw	r2,-52(fp)
   81fa0:	1007883a 	mov	r3,r2
   81fa4:	e0bffb0b 	ldhu	r2,-20(fp)
   81fa8:	1885883a 	add	r2,r3,r2
   81fac:	e0bffb0d 	sth	r2,-20(fp)
        vert_start+=vert_incr;
   81fb0:	e0bff417 	ldw	r2,-48(fp)
   81fb4:	1007883a 	mov	r3,r2
   81fb8:	e0bffc0b 	ldhu	r2,-16(fp)
   81fbc:	1885883a 	add	r2,r3,r2
   81fc0:	e0bffc0d 	sth	r2,-16(fp)
        P+=dPru;
   81fc4:	e0fff517 	ldw	r3,-44(fp)
   81fc8:	e0bff817 	ldw	r2,-32(fp)
   81fcc:	1885883a 	add	r2,r3,r2
   81fd0:	e0bff515 	stw	r2,-44(fp)
   81fd4:	00000906 	br	81ffc <vid_draw_sloped_line+0x16c>
      } else {
        horiz_start+=horiz_incr;
   81fd8:	e0bff317 	ldw	r2,-52(fp)
   81fdc:	1007883a 	mov	r3,r2
   81fe0:	e0bffb0b 	ldhu	r2,-20(fp)
   81fe4:	1885883a 	add	r2,r3,r2
   81fe8:	e0bffb0d 	sth	r2,-20(fp)
        P+=dPr;
   81fec:	e0fff517 	ldw	r3,-44(fp)
   81ff0:	e0bff717 	ldw	r2,-36(fp)
   81ff4:	1885883a 	add	r2,r3,r2
   81ff8:	e0bff515 	stw	r2,-44(fp)
    int dPr   = vert_delta<<1;
    int dPru  = dPr - (horiz_delta<<1);
    int P     = dPr - horiz_delta;

    // Process the line, one horizontal point at at time
    for (; horiz_delta >= 0; horiz_delta--) {
   81ffc:	e0bff117 	ldw	r2,-60(fp)
   82000:	10bfffc4 	addi	r2,r2,-1
   82004:	e0bff115 	stw	r2,-60(fp)
   82008:	e0bff117 	ldw	r2,-60(fp)
   8200c:	103fda0e 	bge	r2,zero,81f78 <vid_draw_sloped_line+0xe8>
   82010:	00003306 	br	820e0 <vid_draw_sloped_line+0x250>
        P+=dPr;
      }
    }
  // If it's the vertical axis
  } else {
    int dPr   = horiz_delta<<1;
   82014:	e0bff117 	ldw	r2,-60(fp)
   82018:	1085883a 	add	r2,r2,r2
   8201c:	e0bff915 	stw	r2,-28(fp)
    int dPru  = dPr - (vert_delta<<1);
   82020:	e0bff217 	ldw	r2,-56(fp)
   82024:	1085883a 	add	r2,r2,r2
   82028:	e0fff917 	ldw	r3,-28(fp)
   8202c:	1885c83a 	sub	r2,r3,r2
   82030:	e0bffa15 	stw	r2,-24(fp)
    int P     = dPr - vert_delta;
   82034:	e0fff917 	ldw	r3,-28(fp)
   82038:	e0bff217 	ldw	r2,-56(fp)
   8203c:	1885c83a 	sub	r2,r3,r2
   82040:	e0bff615 	stw	r2,-40(fp)

    // Process the line, one vertical point at at time
    for (; vert_delta>=0; vert_delta--) {
   82044:	00002406 	br	820d8 <vid_draw_sloped_line+0x248>
      // plot the pixel
      vid_set_pixel(horiz_start, vert_start, color, display);
   82048:	e13ffb0b 	ldhu	r4,-20(fp)
   8204c:	e0fffc0b 	ldhu	r3,-16(fp)
   82050:	e0800317 	ldw	r2,12(fp)
   82054:	180b883a 	mov	r5,r3
   82058:	100d883a 	mov	r6,r2
   8205c:	e1c00417 	ldw	r7,16(fp)
   82060:	0081b140 	call	81b14 <vid_set_pixel>
      // If we're moving both up and right
      if (P > 0) {
   82064:	e0bff617 	ldw	r2,-40(fp)
   82068:	00800f0e 	bge	zero,r2,820a8 <vid_draw_sloped_line+0x218>
        horiz_start+=horiz_incr;
   8206c:	e0bff317 	ldw	r2,-52(fp)
   82070:	1007883a 	mov	r3,r2
   82074:	e0bffb0b 	ldhu	r2,-20(fp)
   82078:	1885883a 	add	r2,r3,r2
   8207c:	e0bffb0d 	sth	r2,-20(fp)
        vert_start+=vert_incr;
   82080:	e0bff417 	ldw	r2,-48(fp)
   82084:	1007883a 	mov	r3,r2
   82088:	e0bffc0b 	ldhu	r2,-16(fp)
   8208c:	1885883a 	add	r2,r3,r2
   82090:	e0bffc0d 	sth	r2,-16(fp)
        P+=dPru;
   82094:	e0fff617 	ldw	r3,-40(fp)
   82098:	e0bffa17 	ldw	r2,-24(fp)
   8209c:	1885883a 	add	r2,r3,r2
   820a0:	e0bff615 	stw	r2,-40(fp)
   820a4:	00000906 	br	820cc <vid_draw_sloped_line+0x23c>
      } else {
        vert_start+=vert_incr;
   820a8:	e0bff417 	ldw	r2,-48(fp)
   820ac:	1007883a 	mov	r3,r2
   820b0:	e0bffc0b 	ldhu	r2,-16(fp)
   820b4:	1885883a 	add	r2,r3,r2
   820b8:	e0bffc0d 	sth	r2,-16(fp)
        P+=dPr;
   820bc:	e0fff617 	ldw	r3,-40(fp)
   820c0:	e0bff917 	ldw	r2,-28(fp)
   820c4:	1885883a 	add	r2,r3,r2
   820c8:	e0bff615 	stw	r2,-40(fp)
    int dPr   = horiz_delta<<1;
    int dPru  = dPr - (vert_delta<<1);
    int P     = dPr - vert_delta;

    // Process the line, one vertical point at at time
    for (; vert_delta>=0; vert_delta--) {
   820cc:	e0bff217 	ldw	r2,-56(fp)
   820d0:	10bfffc4 	addi	r2,r2,-1
   820d4:	e0bff215 	stw	r2,-56(fp)
   820d8:	e0bff217 	ldw	r2,-56(fp)
   820dc:	103fda0e 	bge	r2,zero,82048 <vid_draw_sloped_line+0x1b8>
        vert_start+=vert_incr;
        P+=dPr;
      }
    }
  }
}
   820e0:	e037883a 	mov	sp,fp
   820e4:	dfc00117 	ldw	ra,4(sp)
   820e8:	df000017 	ldw	fp,0(sp)
   820ec:	dec00204 	addi	sp,sp,8
   820f0:	f800283a 	ret

000820f4 <vid_draw_circle>:
*  tells the function whether or not to fill in the box.  1 = fill,
*  0 = do not fill.
*
******************************************************************/
int vid_draw_circle(int Hcenter, int Vcenter, int radius, int color, char fill, alt_video_display* display)
{
   820f4:	defff104 	addi	sp,sp,-60
   820f8:	dfc00e15 	stw	ra,56(sp)
   820fc:	df000d15 	stw	fp,52(sp)
   82100:	df000d04 	addi	fp,sp,52
   82104:	e13ffb15 	stw	r4,-20(fp)
   82108:	e17ffc15 	stw	r5,-16(fp)
   8210c:	e1bffd15 	stw	r6,-12(fp)
   82110:	e1fffe15 	stw	r7,-8(fp)
   82114:	e0800217 	ldw	r2,8(fp)
   82118:	e0bfff05 	stb	r2,-4(fp)
  int x = 0;
   8211c:	e03ff815 	stw	zero,-32(fp)
  int y = radius;
   82120:	e0bffd17 	ldw	r2,-12(fp)
   82124:	e0bff915 	stw	r2,-28(fp)
  int p = (5 - radius*4)/4;
   82128:	e0bffd17 	ldw	r2,-12(fp)
   8212c:	10bfff24 	muli	r2,r2,-4
   82130:	10800144 	addi	r2,r2,5
   82134:	1000010e 	bge	r2,zero,8213c <vid_draw_circle+0x48>
   82138:	108000c4 	addi	r2,r2,3
   8213c:	1005d0ba 	srai	r2,r2,2
   82140:	e0bffa15 	stw	r2,-24(fp)

  // Start the circle with the top, bottom, left, and right pixels.
  vid_round_corner_points(Hcenter, Vcenter, x, y, 0, 0, color, fill, display);
   82144:	e0bfff07 	ldb	r2,-4(fp)
   82148:	d8000015 	stw	zero,0(sp)
   8214c:	d8000115 	stw	zero,4(sp)
   82150:	e0fffe17 	ldw	r3,-8(fp)
   82154:	d8c00215 	stw	r3,8(sp)
   82158:	d8800315 	stw	r2,12(sp)
   8215c:	e0800317 	ldw	r2,12(fp)
   82160:	d8800415 	stw	r2,16(sp)
   82164:	e13ffb17 	ldw	r4,-20(fp)
   82168:	e17ffc17 	ldw	r5,-16(fp)
   8216c:	e1bff817 	ldw	r6,-32(fp)
   82170:	e1fff917 	ldw	r7,-28(fp)
   82174:	00825e80 	call	825e8 <vid_round_corner_points>

  // Now start moving out from those points until the lines meet
  while (x < y) {
   82178:	00002406 	br	8220c <vid_draw_circle+0x118>
    x++;
   8217c:	e0bff817 	ldw	r2,-32(fp)
   82180:	10800044 	addi	r2,r2,1
   82184:	e0bff815 	stw	r2,-32(fp)
    if (p < 0) {
   82188:	e0bffa17 	ldw	r2,-24(fp)
   8218c:	1000070e 	bge	r2,zero,821ac <vid_draw_circle+0xb8>
      p += 2*x+1;
   82190:	e0bff817 	ldw	r2,-32(fp)
   82194:	1085883a 	add	r2,r2,r2
   82198:	10800044 	addi	r2,r2,1
   8219c:	e0fffa17 	ldw	r3,-24(fp)
   821a0:	1885883a 	add	r2,r3,r2
   821a4:	e0bffa15 	stw	r2,-24(fp)
   821a8:	00000b06 	br	821d8 <vid_draw_circle+0xe4>
    } else {
      y--;
   821ac:	e0bff917 	ldw	r2,-28(fp)
   821b0:	10bfffc4 	addi	r2,r2,-1
   821b4:	e0bff915 	stw	r2,-28(fp)
      p += 2*(x-y)+1;
   821b8:	e0fff817 	ldw	r3,-32(fp)
   821bc:	e0bff917 	ldw	r2,-28(fp)
   821c0:	1885c83a 	sub	r2,r3,r2
   821c4:	1085883a 	add	r2,r2,r2
   821c8:	10800044 	addi	r2,r2,1
   821cc:	e0fffa17 	ldw	r3,-24(fp)
   821d0:	1885883a 	add	r2,r3,r2
   821d4:	e0bffa15 	stw	r2,-24(fp)
    }
    vid_round_corner_points(Hcenter, Vcenter, x, y, 0, 0, color, fill, display);
   821d8:	e0bfff07 	ldb	r2,-4(fp)
   821dc:	d8000015 	stw	zero,0(sp)
   821e0:	d8000115 	stw	zero,4(sp)
   821e4:	e0fffe17 	ldw	r3,-8(fp)
   821e8:	d8c00215 	stw	r3,8(sp)
   821ec:	d8800315 	stw	r2,12(sp)
   821f0:	e0800317 	ldw	r2,12(fp)
   821f4:	d8800415 	stw	r2,16(sp)
   821f8:	e13ffb17 	ldw	r4,-20(fp)
   821fc:	e17ffc17 	ldw	r5,-16(fp)
   82200:	e1bff817 	ldw	r6,-32(fp)
   82204:	e1fff917 	ldw	r7,-28(fp)
   82208:	00825e80 	call	825e8 <vid_round_corner_points>

  // Start the circle with the top, bottom, left, and right pixels.
  vid_round_corner_points(Hcenter, Vcenter, x, y, 0, 0, color, fill, display);

  // Now start moving out from those points until the lines meet
  while (x < y) {
   8220c:	e0fff817 	ldw	r3,-32(fp)
   82210:	e0bff917 	ldw	r2,-28(fp)
   82214:	18bfd916 	blt	r3,r2,8217c <vid_draw_circle+0x88>
      y--;
      p += 2*(x-y)+1;
    }
    vid_round_corner_points(Hcenter, Vcenter, x, y, 0, 0, color, fill, display);
  }
  return (0);
   82218:	0005883a 	mov	r2,zero
}
   8221c:	e037883a 	mov	sp,fp
   82220:	dfc00117 	ldw	ra,4(sp)
   82224:	df000017 	ldw	fp,0(sp)
   82228:	dec00204 	addi	sp,sp,8
   8222c:	f800283a 	ret

00082230 <vid_draw_round_corner_box>:
*  to fill in the box.  1 = fill, 0 = do not fill.
*
******************************************************************/
int vid_draw_round_corner_box ( int horiz_start, int vert_start, int horiz_end, int vert_end, 
                                int radius, int color, int fill, alt_video_display* display)
{
   82230:	deffec04 	addi	sp,sp,-80
   82234:	dfc01315 	stw	ra,76(sp)
   82238:	df001215 	stw	fp,72(sp)
   8223c:	df001204 	addi	fp,sp,72
   82240:	e13ffc15 	stw	r4,-16(fp)
   82244:	e17ffd15 	stw	r5,-12(fp)
   82248:	e1bffe15 	stw	r6,-8(fp)
   8224c:	e1ffff15 	stw	r7,-4(fp)
  int diameter;
  int temp;
  unsigned int width, height, straight_width, straight_height;

  // Make sure the start point us up and left of the end point
  if( horiz_start > horiz_end )
   82250:	e0bffc17 	ldw	r2,-16(fp)
   82254:	e0fffe17 	ldw	r3,-8(fp)
   82258:	1880060e 	bge	r3,r2,82274 <vid_draw_round_corner_box+0x44>
  {
    temp = horiz_end;
   8225c:	e0bffe17 	ldw	r2,-8(fp)
   82260:	e0bff615 	stw	r2,-40(fp)
    horiz_end = horiz_start;
   82264:	e0bffc17 	ldw	r2,-16(fp)
   82268:	e0bffe15 	stw	r2,-8(fp)
    horiz_start = temp;
   8226c:	e0bff617 	ldw	r2,-40(fp)
   82270:	e0bffc15 	stw	r2,-16(fp)
  }
  
  if( vert_start > vert_end )
   82274:	e0bffd17 	ldw	r2,-12(fp)
   82278:	e0ffff17 	ldw	r3,-4(fp)
   8227c:	1880060e 	bge	r3,r2,82298 <vid_draw_round_corner_box+0x68>
  {
    temp = vert_end;
   82280:	e0bfff17 	ldw	r2,-4(fp)
   82284:	e0bff615 	stw	r2,-40(fp)
    vert_end = vert_start;
   82288:	e0bffd17 	ldw	r2,-12(fp)
   8228c:	e0bfff15 	stw	r2,-4(fp)
    vert_start = temp;
   82290:	e0bff617 	ldw	r2,-40(fp)
   82294:	e0bffd15 	stw	r2,-12(fp)
  }
  
  // These are the overall dimensions of the box
  width = horiz_end - horiz_start;
   82298:	e0fffe17 	ldw	r3,-8(fp)
   8229c:	e0bffc17 	ldw	r2,-16(fp)
   822a0:	1885c83a 	sub	r2,r3,r2
   822a4:	e0bff715 	stw	r2,-36(fp)
  height = vert_end - vert_start;
   822a8:	e0ffff17 	ldw	r3,-4(fp)
   822ac:	e0bffd17 	ldw	r2,-12(fp)
   822b0:	1885c83a 	sub	r2,r3,r2
   822b4:	e0bff815 	stw	r2,-32(fp)

  // Make sure our radius isnt more than the shortest dimension 
  // of the box, or it'll screw us all up
  if( radius > ( width / 2 ))
   822b8:	e0800217 	ldw	r2,8(fp)
   822bc:	e0fff717 	ldw	r3,-36(fp)
   822c0:	1806d07a 	srli	r3,r3,1
   822c4:	1880032e 	bgeu	r3,r2,822d4 <vid_draw_round_corner_box+0xa4>
    radius = width / 2;
   822c8:	e0bff717 	ldw	r2,-36(fp)
   822cc:	1004d07a 	srli	r2,r2,1
   822d0:	e0800215 	stw	r2,8(fp)

  if( radius > ( height / 2 ))
   822d4:	e0800217 	ldw	r2,8(fp)
   822d8:	e0fff817 	ldw	r3,-32(fp)
   822dc:	1806d07a 	srli	r3,r3,1
   822e0:	1880032e 	bgeu	r3,r2,822f0 <vid_draw_round_corner_box+0xc0>
    radius = height / 2;
   822e4:	e0bff817 	ldw	r2,-32(fp)
   822e8:	1004d07a 	srli	r2,r2,1
   822ec:	e0800215 	stw	r2,8(fp)
  
  // We use the diameter for some calculations, so we'll pre calculate it here.
  diameter = ( radius * 2 );
   822f0:	e0800217 	ldw	r2,8(fp)
   822f4:	1085883a 	add	r2,r2,r2
   822f8:	e0bff915 	stw	r2,-28(fp)

  // These are the lengths of the straight portions of the box edges.
  straight_width = width - diameter;
   822fc:	e0bff917 	ldw	r2,-28(fp)
   82300:	e0fff717 	ldw	r3,-36(fp)
   82304:	1885c83a 	sub	r2,r3,r2
   82308:	e0bffa15 	stw	r2,-24(fp)
  straight_height = height - diameter;
   8230c:	e0bff917 	ldw	r2,-28(fp)
   82310:	e0fff817 	ldw	r3,-32(fp)
   82314:	1885c83a 	sub	r2,r3,r2
   82318:	e0bffb15 	stw	r2,-20(fp)

  x = 0;
   8231c:	e03ff315 	stw	zero,-52(fp)
  y = radius;
   82320:	e0800217 	ldw	r2,8(fp)
   82324:	e0bff415 	stw	r2,-48(fp)
  p = (5 - radius*4)/4;
   82328:	e0800217 	ldw	r2,8(fp)
   8232c:	10bfff24 	muli	r2,r2,-4
   82330:	10800144 	addi	r2,r2,5
   82334:	1000010e 	bge	r2,zero,8233c <vid_draw_round_corner_box+0x10c>
   82338:	108000c4 	addi	r2,r2,3
   8233c:	1005d0ba 	srai	r2,r2,2
   82340:	e0bff515 	stw	r2,-44(fp)
   
  // Start the corners with the top, bottom, left, and right pixels.
  vid_round_corner_points( horiz_start + radius, vert_start + radius, x, y, 
   82344:	e0fffc17 	ldw	r3,-16(fp)
   82348:	e0800217 	ldw	r2,8(fp)
   8234c:	1889883a 	add	r4,r3,r2
   82350:	e0fffd17 	ldw	r3,-12(fp)
   82354:	e0800217 	ldw	r2,8(fp)
   82358:	188b883a 	add	r5,r3,r2
   8235c:	e0fff317 	ldw	r3,-52(fp)
   82360:	e0bff417 	ldw	r2,-48(fp)
   82364:	e23ffa17 	ldw	r8,-24(fp)
   82368:	e1fffb17 	ldw	r7,-20(fp)
   8236c:	e1800417 	ldw	r6,16(fp)
   82370:	31803fcc 	andi	r6,r6,255
   82374:	3180201c 	xori	r6,r6,128
   82378:	31bfe004 	addi	r6,r6,-128
   8237c:	da000015 	stw	r8,0(sp)
   82380:	d9c00115 	stw	r7,4(sp)
   82384:	e1c00317 	ldw	r7,12(fp)
   82388:	d9c00215 	stw	r7,8(sp)
   8238c:	d9800315 	stw	r6,12(sp)
   82390:	e1800517 	ldw	r6,20(fp)
   82394:	d9800415 	stw	r6,16(sp)
   82398:	180d883a 	mov	r6,r3
   8239c:	100f883a 	mov	r7,r2
   823a0:	00825e80 	call	825e8 <vid_round_corner_points>
                           straight_width, straight_height, color, fill, display );
  
  // Now start moving out from those points until the lines meet
  while (x < y) {
   823a4:	00003106 	br	8246c <vid_draw_round_corner_box+0x23c>
    x++;
   823a8:	e0bff317 	ldw	r2,-52(fp)
   823ac:	10800044 	addi	r2,r2,1
   823b0:	e0bff315 	stw	r2,-52(fp)
    if (p < 0) {
   823b4:	e0bff517 	ldw	r2,-44(fp)
   823b8:	1000080e 	bge	r2,zero,823dc <vid_draw_round_corner_box+0x1ac>
      p += 2*x+1;
   823bc:	e0bff317 	ldw	r2,-52(fp)
   823c0:	1085883a 	add	r2,r2,r2
   823c4:	1007883a 	mov	r3,r2
   823c8:	e0bff517 	ldw	r2,-44(fp)
   823cc:	1885883a 	add	r2,r3,r2
   823d0:	10800044 	addi	r2,r2,1
   823d4:	e0bff515 	stw	r2,-44(fp)
   823d8:	00000c06 	br	8240c <vid_draw_round_corner_box+0x1dc>
    } else {
      y--;
   823dc:	e0bff417 	ldw	r2,-48(fp)
   823e0:	10bfffc4 	addi	r2,r2,-1
   823e4:	e0bff415 	stw	r2,-48(fp)
      p += 2*(x-y)+1;
   823e8:	e0fff317 	ldw	r3,-52(fp)
   823ec:	e0bff417 	ldw	r2,-48(fp)
   823f0:	1885c83a 	sub	r2,r3,r2
   823f4:	1085883a 	add	r2,r2,r2
   823f8:	1007883a 	mov	r3,r2
   823fc:	e0bff517 	ldw	r2,-44(fp)
   82400:	1885883a 	add	r2,r3,r2
   82404:	10800044 	addi	r2,r2,1
   82408:	e0bff515 	stw	r2,-44(fp)
    }
    vid_round_corner_points( horiz_start + radius, vert_start + radius, x, y, 
   8240c:	e0fffc17 	ldw	r3,-16(fp)
   82410:	e0800217 	ldw	r2,8(fp)
   82414:	1889883a 	add	r4,r3,r2
   82418:	e0fffd17 	ldw	r3,-12(fp)
   8241c:	e0800217 	ldw	r2,8(fp)
   82420:	188b883a 	add	r5,r3,r2
   82424:	e0fff317 	ldw	r3,-52(fp)
   82428:	e0bff417 	ldw	r2,-48(fp)
   8242c:	e23ffa17 	ldw	r8,-24(fp)
   82430:	e1fffb17 	ldw	r7,-20(fp)
   82434:	e1800417 	ldw	r6,16(fp)
   82438:	31803fcc 	andi	r6,r6,255
   8243c:	3180201c 	xori	r6,r6,128
   82440:	31bfe004 	addi	r6,r6,-128
   82444:	da000015 	stw	r8,0(sp)
   82448:	d9c00115 	stw	r7,4(sp)
   8244c:	e1c00317 	ldw	r7,12(fp)
   82450:	d9c00215 	stw	r7,8(sp)
   82454:	d9800315 	stw	r6,12(sp)
   82458:	e1800517 	ldw	r6,20(fp)
   8245c:	d9800415 	stw	r6,16(sp)
   82460:	180d883a 	mov	r6,r3
   82464:	100f883a 	mov	r7,r2
   82468:	00825e80 	call	825e8 <vid_round_corner_points>
  // Start the corners with the top, bottom, left, and right pixels.
  vid_round_corner_points( horiz_start + radius, vert_start + radius, x, y, 
                           straight_width, straight_height, color, fill, display );
  
  // Now start moving out from those points until the lines meet
  while (x < y) {
   8246c:	e0fff317 	ldw	r3,-52(fp)
   82470:	e0bff417 	ldw	r2,-48(fp)
   82474:	18bfcc36 	bltu	r3,r2,823a8 <vid_draw_round_corner_box+0x178>
    vid_round_corner_points( horiz_start + radius, vert_start + radius, x, y, 
                             straight_width, straight_height, color, fill, display);
  }

  // If we want to fill in our box
  if (fill) {
   82478:	e0800417 	ldw	r2,16(fp)
   8247c:	10001026 	beq	r2,zero,824c0 <vid_draw_round_corner_box+0x290>
     vid_paint_block (horiz_start, vert_start + radius, horiz_end, vert_end - radius, color, display);
   82480:	e0fffd17 	ldw	r3,-12(fp)
   82484:	e0800217 	ldw	r2,8(fp)
   82488:	1887883a 	add	r3,r3,r2
   8248c:	e13fff17 	ldw	r4,-4(fp)
   82490:	e0800217 	ldw	r2,8(fp)
   82494:	2085c83a 	sub	r2,r4,r2
   82498:	e1000317 	ldw	r4,12(fp)
   8249c:	d9000015 	stw	r4,0(sp)
   824a0:	e1000517 	ldw	r4,20(fp)
   824a4:	d9000115 	stw	r4,4(sp)
   824a8:	e13ffc17 	ldw	r4,-16(fp)
   824ac:	180b883a 	mov	r5,r3
   824b0:	e1bffe17 	ldw	r6,-8(fp)
   824b4:	100f883a 	mov	r7,r2
   824b8:	0081bec0 	call	81bec <vid_paint_block>
   824bc:	00004406 	br	825d0 <vid_draw_round_corner_box+0x3a0>
  // If we're not filling in the box, just draw four lines.
  } else {
    vid_draw_line(horiz_start, vert_start + radius, horiz_start, vert_end - radius , 1, color, display); //left
   824c0:	e0fffd17 	ldw	r3,-12(fp)
   824c4:	e0800217 	ldw	r2,8(fp)
   824c8:	1887883a 	add	r3,r3,r2
   824cc:	e13fff17 	ldw	r4,-4(fp)
   824d0:	e0800217 	ldw	r2,8(fp)
   824d4:	2085c83a 	sub	r2,r4,r2
   824d8:	01000044 	movi	r4,1
   824dc:	d9000015 	stw	r4,0(sp)
   824e0:	e1000317 	ldw	r4,12(fp)
   824e4:	d9000115 	stw	r4,4(sp)
   824e8:	e1000517 	ldw	r4,20(fp)
   824ec:	d9000215 	stw	r4,8(sp)
   824f0:	e13ffc17 	ldw	r4,-16(fp)
   824f4:	180b883a 	mov	r5,r3
   824f8:	e1bffc17 	ldw	r6,-16(fp)
   824fc:	100f883a 	mov	r7,r2
   82500:	00810d00 	call	810d0 <vid_draw_line>
    vid_draw_line(horiz_end, vert_start + radius, horiz_end, vert_end - radius , 1, color, display); //right
   82504:	e0fffd17 	ldw	r3,-12(fp)
   82508:	e0800217 	ldw	r2,8(fp)
   8250c:	1887883a 	add	r3,r3,r2
   82510:	e13fff17 	ldw	r4,-4(fp)
   82514:	e0800217 	ldw	r2,8(fp)
   82518:	2085c83a 	sub	r2,r4,r2
   8251c:	01000044 	movi	r4,1
   82520:	d9000015 	stw	r4,0(sp)
   82524:	e1000317 	ldw	r4,12(fp)
   82528:	d9000115 	stw	r4,4(sp)
   8252c:	e1000517 	ldw	r4,20(fp)
   82530:	d9000215 	stw	r4,8(sp)
   82534:	e13ffe17 	ldw	r4,-8(fp)
   82538:	180b883a 	mov	r5,r3
   8253c:	e1bffe17 	ldw	r6,-8(fp)
   82540:	100f883a 	mov	r7,r2
   82544:	00810d00 	call	810d0 <vid_draw_line>
    vid_draw_line(horiz_start + radius, vert_start, horiz_end - radius , vert_start, 1, color, display); //top
   82548:	e0fffc17 	ldw	r3,-16(fp)
   8254c:	e0800217 	ldw	r2,8(fp)
   82550:	1887883a 	add	r3,r3,r2
   82554:	e13ffe17 	ldw	r4,-8(fp)
   82558:	e0800217 	ldw	r2,8(fp)
   8255c:	2085c83a 	sub	r2,r4,r2
   82560:	01000044 	movi	r4,1
   82564:	d9000015 	stw	r4,0(sp)
   82568:	e1000317 	ldw	r4,12(fp)
   8256c:	d9000115 	stw	r4,4(sp)
   82570:	e1000517 	ldw	r4,20(fp)
   82574:	d9000215 	stw	r4,8(sp)
   82578:	1809883a 	mov	r4,r3
   8257c:	e17ffd17 	ldw	r5,-12(fp)
   82580:	100d883a 	mov	r6,r2
   82584:	e1fffd17 	ldw	r7,-12(fp)
   82588:	00810d00 	call	810d0 <vid_draw_line>
    vid_draw_line(horiz_start + radius, vert_end, horiz_end - radius , vert_end, 1, color, display); //bottom
   8258c:	e0fffc17 	ldw	r3,-16(fp)
   82590:	e0800217 	ldw	r2,8(fp)
   82594:	1887883a 	add	r3,r3,r2
   82598:	e13ffe17 	ldw	r4,-8(fp)
   8259c:	e0800217 	ldw	r2,8(fp)
   825a0:	2085c83a 	sub	r2,r4,r2
   825a4:	01000044 	movi	r4,1
   825a8:	d9000015 	stw	r4,0(sp)
   825ac:	e1000317 	ldw	r4,12(fp)
   825b0:	d9000115 	stw	r4,4(sp)
   825b4:	e1000517 	ldw	r4,20(fp)
   825b8:	d9000215 	stw	r4,8(sp)
   825bc:	1809883a 	mov	r4,r3
   825c0:	e17fff17 	ldw	r5,-4(fp)
   825c4:	100d883a 	mov	r6,r2
   825c8:	e1ffff17 	ldw	r7,-4(fp)
   825cc:	00810d00 	call	810d0 <vid_draw_line>
  }

  return (0);
   825d0:	0005883a 	mov	r2,zero
}
   825d4:	e037883a 	mov	sp,fp
   825d8:	dfc00117 	ldw	ra,4(sp)
   825dc:	df000017 	ldw	fp,0(sp)
   825e0:	dec00204 	addi	sp,sp,8
   825e4:	f800283a 	ret

000825e8 <vid_round_corner_points>:
******************************************************************/

void vid_round_corner_points( int cx, int cy, int x, int y, 
                              int straight_width, int straight_height, int color, 
                              char fill, alt_video_display* display)
{
   825e8:	defff604 	addi	sp,sp,-40
   825ec:	dfc00915 	stw	ra,36(sp)
   825f0:	df000815 	stw	fp,32(sp)
   825f4:	df000804 	addi	fp,sp,32
   825f8:	e13ffb15 	stw	r4,-20(fp)
   825fc:	e17ffc15 	stw	r5,-16(fp)
   82600:	e1bffd15 	stw	r6,-12(fp)
   82604:	e1fffe15 	stw	r7,-8(fp)
   82608:	e0800517 	ldw	r2,20(fp)
   8260c:	e0bfff05 	stb	r2,-4(fp)

    // If we're directly above, below, left and right of center (0 degrees), plot those 4 pixels
    if (x == 0) {
   82610:	e0bffd17 	ldw	r2,-12(fp)
   82614:	1000861e 	bne	r2,zero,82830 <vid_round_corner_points+0x248>
        // bottom
        vid_set_pixel(cx, cy + y + straight_height, color, display);
   82618:	e0fffc17 	ldw	r3,-16(fp)
   8261c:	e0bffe17 	ldw	r2,-8(fp)
   82620:	1887883a 	add	r3,r3,r2
   82624:	e0800317 	ldw	r2,12(fp)
   82628:	1887883a 	add	r3,r3,r2
   8262c:	e0800417 	ldw	r2,16(fp)
   82630:	e13ffb17 	ldw	r4,-20(fp)
   82634:	180b883a 	mov	r5,r3
   82638:	100d883a 	mov	r6,r2
   8263c:	e1c00617 	ldw	r7,24(fp)
   82640:	0081b140 	call	81b14 <vid_set_pixel>
        vid_set_pixel(cx + straight_width, cy + y + straight_height, color, display);
   82644:	e0fffb17 	ldw	r3,-20(fp)
   82648:	e0800217 	ldw	r2,8(fp)
   8264c:	1889883a 	add	r4,r3,r2
   82650:	e0fffc17 	ldw	r3,-16(fp)
   82654:	e0bffe17 	ldw	r2,-8(fp)
   82658:	1887883a 	add	r3,r3,r2
   8265c:	e0800317 	ldw	r2,12(fp)
   82660:	1887883a 	add	r3,r3,r2
   82664:	e0800417 	ldw	r2,16(fp)
   82668:	180b883a 	mov	r5,r3
   8266c:	100d883a 	mov	r6,r2
   82670:	e1c00617 	ldw	r7,24(fp)
   82674:	0081b140 	call	81b14 <vid_set_pixel>
        // top
        vid_set_pixel(cx, cy - y, color, display);
   82678:	e0fffc17 	ldw	r3,-16(fp)
   8267c:	e0bffe17 	ldw	r2,-8(fp)
   82680:	1887c83a 	sub	r3,r3,r2
   82684:	e0800417 	ldw	r2,16(fp)
   82688:	e13ffb17 	ldw	r4,-20(fp)
   8268c:	180b883a 	mov	r5,r3
   82690:	100d883a 	mov	r6,r2
   82694:	e1c00617 	ldw	r7,24(fp)
   82698:	0081b140 	call	81b14 <vid_set_pixel>
        vid_set_pixel(cx + straight_width, cy - y, color, display);
   8269c:	e0fffb17 	ldw	r3,-20(fp)
   826a0:	e0800217 	ldw	r2,8(fp)
   826a4:	1889883a 	add	r4,r3,r2
   826a8:	e0fffc17 	ldw	r3,-16(fp)
   826ac:	e0bffe17 	ldw	r2,-8(fp)
   826b0:	1887c83a 	sub	r3,r3,r2
   826b4:	e0800417 	ldw	r2,16(fp)
   826b8:	180b883a 	mov	r5,r3
   826bc:	100d883a 	mov	r6,r2
   826c0:	e1c00617 	ldw	r7,24(fp)
   826c4:	0081b140 	call	81b14 <vid_set_pixel>

        if(fill) {
   826c8:	e0bfff07 	ldb	r2,-4(fp)
   826cc:	10002b26 	beq	r2,zero,8277c <vid_round_corner_points+0x194>
          vid_draw_line(cx - y, cy, cx + y + straight_width, cy, 1, color, display);
   826d0:	e0fffb17 	ldw	r3,-20(fp)
   826d4:	e0bffe17 	ldw	r2,-8(fp)
   826d8:	1887c83a 	sub	r3,r3,r2
   826dc:	e13ffb17 	ldw	r4,-20(fp)
   826e0:	e0bffe17 	ldw	r2,-8(fp)
   826e4:	2089883a 	add	r4,r4,r2
   826e8:	e0800217 	ldw	r2,8(fp)
   826ec:	2085883a 	add	r2,r4,r2
   826f0:	01000044 	movi	r4,1
   826f4:	d9000015 	stw	r4,0(sp)
   826f8:	e1000417 	ldw	r4,16(fp)
   826fc:	d9000115 	stw	r4,4(sp)
   82700:	e1000617 	ldw	r4,24(fp)
   82704:	d9000215 	stw	r4,8(sp)
   82708:	1809883a 	mov	r4,r3
   8270c:	e17ffc17 	ldw	r5,-16(fp)
   82710:	100d883a 	mov	r6,r2
   82714:	e1fffc17 	ldw	r7,-16(fp)
   82718:	00810d00 	call	810d0 <vid_draw_line>
          vid_draw_line(cx - y, cy + straight_height, cx + y + straight_width, cy + straight_height, 1, color, display);
   8271c:	e0fffb17 	ldw	r3,-20(fp)
   82720:	e0bffe17 	ldw	r2,-8(fp)
   82724:	1889c83a 	sub	r4,r3,r2
   82728:	e0fffc17 	ldw	r3,-16(fp)
   8272c:	e0800317 	ldw	r2,12(fp)
   82730:	188b883a 	add	r5,r3,r2
   82734:	e0fffb17 	ldw	r3,-20(fp)
   82738:	e0bffe17 	ldw	r2,-8(fp)
   8273c:	1887883a 	add	r3,r3,r2
   82740:	e0800217 	ldw	r2,8(fp)
   82744:	1887883a 	add	r3,r3,r2
   82748:	e1bffc17 	ldw	r6,-16(fp)
   8274c:	e0800317 	ldw	r2,12(fp)
   82750:	3085883a 	add	r2,r6,r2
   82754:	01800044 	movi	r6,1
   82758:	d9800015 	stw	r6,0(sp)
   8275c:	e1800417 	ldw	r6,16(fp)
   82760:	d9800115 	stw	r6,4(sp)
   82764:	e1800617 	ldw	r6,24(fp)
   82768:	d9800215 	stw	r6,8(sp)
   8276c:	180d883a 	mov	r6,r3
   82770:	100f883a 	mov	r7,r2
   82774:	00810d00 	call	810d0 <vid_draw_line>
   82778:	00016c06 	br	82d2c <vid_round_corner_points+0x744>
        } else {
          //right
          vid_set_pixel(cx + y + straight_width, cy, color, display);
   8277c:	e0fffb17 	ldw	r3,-20(fp)
   82780:	e0bffe17 	ldw	r2,-8(fp)
   82784:	1887883a 	add	r3,r3,r2
   82788:	e0800217 	ldw	r2,8(fp)
   8278c:	1887883a 	add	r3,r3,r2
   82790:	e0800417 	ldw	r2,16(fp)
   82794:	1809883a 	mov	r4,r3
   82798:	e17ffc17 	ldw	r5,-16(fp)
   8279c:	100d883a 	mov	r6,r2
   827a0:	e1c00617 	ldw	r7,24(fp)
   827a4:	0081b140 	call	81b14 <vid_set_pixel>
          vid_set_pixel(cx + y + straight_width, cy + straight_height, color, display);
   827a8:	e0fffb17 	ldw	r3,-20(fp)
   827ac:	e0bffe17 	ldw	r2,-8(fp)
   827b0:	1887883a 	add	r3,r3,r2
   827b4:	e0800217 	ldw	r2,8(fp)
   827b8:	1889883a 	add	r4,r3,r2
   827bc:	e0fffc17 	ldw	r3,-16(fp)
   827c0:	e0800317 	ldw	r2,12(fp)
   827c4:	1887883a 	add	r3,r3,r2
   827c8:	e0800417 	ldw	r2,16(fp)
   827cc:	180b883a 	mov	r5,r3
   827d0:	100d883a 	mov	r6,r2
   827d4:	e1c00617 	ldw	r7,24(fp)
   827d8:	0081b140 	call	81b14 <vid_set_pixel>
          //left
          vid_set_pixel(cx - y, cy, color, display);
   827dc:	e0fffb17 	ldw	r3,-20(fp)
   827e0:	e0bffe17 	ldw	r2,-8(fp)
   827e4:	1887c83a 	sub	r3,r3,r2
   827e8:	e0800417 	ldw	r2,16(fp)
   827ec:	1809883a 	mov	r4,r3
   827f0:	e17ffc17 	ldw	r5,-16(fp)
   827f4:	100d883a 	mov	r6,r2
   827f8:	e1c00617 	ldw	r7,24(fp)
   827fc:	0081b140 	call	81b14 <vid_set_pixel>
          vid_set_pixel(cx - y, cy + straight_height, color, display);
   82800:	e0fffb17 	ldw	r3,-20(fp)
   82804:	e0bffe17 	ldw	r2,-8(fp)
   82808:	1889c83a 	sub	r4,r3,r2
   8280c:	e0fffc17 	ldw	r3,-16(fp)
   82810:	e0800317 	ldw	r2,12(fp)
   82814:	1887883a 	add	r3,r3,r2
   82818:	e0800417 	ldw	r2,16(fp)
   8281c:	180b883a 	mov	r5,r3
   82820:	100d883a 	mov	r6,r2
   82824:	e1c00617 	ldw	r7,24(fp)
   82828:	0081b140 	call	81b14 <vid_set_pixel>
   8282c:	00013f06 	br	82d2c <vid_round_corner_points+0x744>
        }

    } else
    // If we've reached the 45 degree points (x=y), plot those 4 pixels
    if (x == y) {
   82830:	e0fffd17 	ldw	r3,-12(fp)
   82834:	e0bffe17 	ldw	r2,-8(fp)
   82838:	18806a1e 	bne	r3,r2,829e4 <vid_round_corner_points+0x3fc>
      if(fill) {
   8283c:	e0bfff07 	ldb	r2,-4(fp)
   82840:	10003326 	beq	r2,zero,82910 <vid_round_corner_points+0x328>
        vid_draw_line(cx - x, cy + y + straight_height, cx + x + straight_width, cy + y + straight_height, 1, color, display); // lower
   82844:	e0fffb17 	ldw	r3,-20(fp)
   82848:	e0bffd17 	ldw	r2,-12(fp)
   8284c:	1889c83a 	sub	r4,r3,r2
   82850:	e0fffc17 	ldw	r3,-16(fp)
   82854:	e0bffe17 	ldw	r2,-8(fp)
   82858:	1887883a 	add	r3,r3,r2
   8285c:	e0800317 	ldw	r2,12(fp)
   82860:	188b883a 	add	r5,r3,r2
   82864:	e0fffb17 	ldw	r3,-20(fp)
   82868:	e0bffd17 	ldw	r2,-12(fp)
   8286c:	1887883a 	add	r3,r3,r2
   82870:	e0800217 	ldw	r2,8(fp)
   82874:	1887883a 	add	r3,r3,r2
   82878:	e1bffc17 	ldw	r6,-16(fp)
   8287c:	e0bffe17 	ldw	r2,-8(fp)
   82880:	308d883a 	add	r6,r6,r2
   82884:	e0800317 	ldw	r2,12(fp)
   82888:	3085883a 	add	r2,r6,r2
   8288c:	01800044 	movi	r6,1
   82890:	d9800015 	stw	r6,0(sp)
   82894:	e1800417 	ldw	r6,16(fp)
   82898:	d9800115 	stw	r6,4(sp)
   8289c:	e1800617 	ldw	r6,24(fp)
   828a0:	d9800215 	stw	r6,8(sp)
   828a4:	180d883a 	mov	r6,r3
   828a8:	100f883a 	mov	r7,r2
   828ac:	00810d00 	call	810d0 <vid_draw_line>
        vid_draw_line(cx - x, cy - y, cx + x + straight_width, cy - y, 1, color, display); // upper
   828b0:	e0fffb17 	ldw	r3,-20(fp)
   828b4:	e0bffd17 	ldw	r2,-12(fp)
   828b8:	1889c83a 	sub	r4,r3,r2
   828bc:	e0fffc17 	ldw	r3,-16(fp)
   828c0:	e0bffe17 	ldw	r2,-8(fp)
   828c4:	188bc83a 	sub	r5,r3,r2
   828c8:	e0fffb17 	ldw	r3,-20(fp)
   828cc:	e0bffd17 	ldw	r2,-12(fp)
   828d0:	1887883a 	add	r3,r3,r2
   828d4:	e0800217 	ldw	r2,8(fp)
   828d8:	1887883a 	add	r3,r3,r2
   828dc:	e1bffc17 	ldw	r6,-16(fp)
   828e0:	e0bffe17 	ldw	r2,-8(fp)
   828e4:	3085c83a 	sub	r2,r6,r2
   828e8:	01800044 	movi	r6,1
   828ec:	d9800015 	stw	r6,0(sp)
   828f0:	e1800417 	ldw	r6,16(fp)
   828f4:	d9800115 	stw	r6,4(sp)
   828f8:	e1800617 	ldw	r6,24(fp)
   828fc:	d9800215 	stw	r6,8(sp)
   82900:	180d883a 	mov	r6,r3
   82904:	100f883a 	mov	r7,r2
   82908:	00810d00 	call	810d0 <vid_draw_line>
   8290c:	00010706 	br	82d2c <vid_round_corner_points+0x744>
        
      } else {
        vid_set_pixel(cx + x + straight_width, cy + y + straight_height, color, display); // bottom right
   82910:	e0fffb17 	ldw	r3,-20(fp)
   82914:	e0bffd17 	ldw	r2,-12(fp)
   82918:	1887883a 	add	r3,r3,r2
   8291c:	e0800217 	ldw	r2,8(fp)
   82920:	1889883a 	add	r4,r3,r2
   82924:	e0fffc17 	ldw	r3,-16(fp)
   82928:	e0bffe17 	ldw	r2,-8(fp)
   8292c:	1887883a 	add	r3,r3,r2
   82930:	e0800317 	ldw	r2,12(fp)
   82934:	1887883a 	add	r3,r3,r2
   82938:	e0800417 	ldw	r2,16(fp)
   8293c:	180b883a 	mov	r5,r3
   82940:	100d883a 	mov	r6,r2
   82944:	e1c00617 	ldw	r7,24(fp)
   82948:	0081b140 	call	81b14 <vid_set_pixel>
        vid_set_pixel(cx - x, cy + y + straight_height, color, display); // bottom left
   8294c:	e0fffb17 	ldw	r3,-20(fp)
   82950:	e0bffd17 	ldw	r2,-12(fp)
   82954:	1889c83a 	sub	r4,r3,r2
   82958:	e0fffc17 	ldw	r3,-16(fp)
   8295c:	e0bffe17 	ldw	r2,-8(fp)
   82960:	1887883a 	add	r3,r3,r2
   82964:	e0800317 	ldw	r2,12(fp)
   82968:	1887883a 	add	r3,r3,r2
   8296c:	e0800417 	ldw	r2,16(fp)
   82970:	180b883a 	mov	r5,r3
   82974:	100d883a 	mov	r6,r2
   82978:	e1c00617 	ldw	r7,24(fp)
   8297c:	0081b140 	call	81b14 <vid_set_pixel>
        vid_set_pixel(cx + x + straight_width, cy - y, color, display); // top right
   82980:	e0fffb17 	ldw	r3,-20(fp)
   82984:	e0bffd17 	ldw	r2,-12(fp)
   82988:	1887883a 	add	r3,r3,r2
   8298c:	e0800217 	ldw	r2,8(fp)
   82990:	1889883a 	add	r4,r3,r2
   82994:	e0fffc17 	ldw	r3,-16(fp)
   82998:	e0bffe17 	ldw	r2,-8(fp)
   8299c:	1887c83a 	sub	r3,r3,r2
   829a0:	e0800417 	ldw	r2,16(fp)
   829a4:	180b883a 	mov	r5,r3
   829a8:	100d883a 	mov	r6,r2
   829ac:	e1c00617 	ldw	r7,24(fp)
   829b0:	0081b140 	call	81b14 <vid_set_pixel>
        vid_set_pixel(cx - x, cy - y, color, display); // top left
   829b4:	e0fffb17 	ldw	r3,-20(fp)
   829b8:	e0bffd17 	ldw	r2,-12(fp)
   829bc:	1889c83a 	sub	r4,r3,r2
   829c0:	e0fffc17 	ldw	r3,-16(fp)
   829c4:	e0bffe17 	ldw	r2,-8(fp)
   829c8:	1887c83a 	sub	r3,r3,r2
   829cc:	e0800417 	ldw	r2,16(fp)
   829d0:	180b883a 	mov	r5,r3
   829d4:	100d883a 	mov	r6,r2
   829d8:	e1c00617 	ldw	r7,24(fp)
   829dc:	0081b140 	call	81b14 <vid_set_pixel>
   829e0:	0000d206 	br	82d2c <vid_round_corner_points+0x744>
      }
    } else
    // If we're between 0 and 45 degrees plot 8 pixels.
    if (x < y) {
   829e4:	e0fffd17 	ldw	r3,-12(fp)
   829e8:	e0bffe17 	ldw	r2,-8(fp)
   829ec:	1880cf0e 	bge	r3,r2,82d2c <vid_round_corner_points+0x744>
        if(fill) {
   829f0:	e0bfff07 	ldb	r2,-4(fp)
   829f4:	10006526 	beq	r2,zero,82b8c <vid_round_corner_points+0x5a4>
          vid_draw_line(cx - x, cy + y + straight_height, cx + x + straight_width, cy + y + straight_height, 1, color, display);
   829f8:	e0fffb17 	ldw	r3,-20(fp)
   829fc:	e0bffd17 	ldw	r2,-12(fp)
   82a00:	1889c83a 	sub	r4,r3,r2
   82a04:	e0fffc17 	ldw	r3,-16(fp)
   82a08:	e0bffe17 	ldw	r2,-8(fp)
   82a0c:	1887883a 	add	r3,r3,r2
   82a10:	e0800317 	ldw	r2,12(fp)
   82a14:	188b883a 	add	r5,r3,r2
   82a18:	e0fffb17 	ldw	r3,-20(fp)
   82a1c:	e0bffd17 	ldw	r2,-12(fp)
   82a20:	1887883a 	add	r3,r3,r2
   82a24:	e0800217 	ldw	r2,8(fp)
   82a28:	1887883a 	add	r3,r3,r2
   82a2c:	e1bffc17 	ldw	r6,-16(fp)
   82a30:	e0bffe17 	ldw	r2,-8(fp)
   82a34:	308d883a 	add	r6,r6,r2
   82a38:	e0800317 	ldw	r2,12(fp)
   82a3c:	3085883a 	add	r2,r6,r2
   82a40:	01800044 	movi	r6,1
   82a44:	d9800015 	stw	r6,0(sp)
   82a48:	e1800417 	ldw	r6,16(fp)
   82a4c:	d9800115 	stw	r6,4(sp)
   82a50:	e1800617 	ldw	r6,24(fp)
   82a54:	d9800215 	stw	r6,8(sp)
   82a58:	180d883a 	mov	r6,r3
   82a5c:	100f883a 	mov	r7,r2
   82a60:	00810d00 	call	810d0 <vid_draw_line>
          vid_draw_line(cx - y, cy + x + straight_height, cx + y + straight_width, cy + x + straight_height, 1, color, display);
   82a64:	e0fffb17 	ldw	r3,-20(fp)
   82a68:	e0bffe17 	ldw	r2,-8(fp)
   82a6c:	1889c83a 	sub	r4,r3,r2
   82a70:	e0fffc17 	ldw	r3,-16(fp)
   82a74:	e0bffd17 	ldw	r2,-12(fp)
   82a78:	1887883a 	add	r3,r3,r2
   82a7c:	e0800317 	ldw	r2,12(fp)
   82a80:	188b883a 	add	r5,r3,r2
   82a84:	e0fffb17 	ldw	r3,-20(fp)
   82a88:	e0bffe17 	ldw	r2,-8(fp)
   82a8c:	1887883a 	add	r3,r3,r2
   82a90:	e0800217 	ldw	r2,8(fp)
   82a94:	1887883a 	add	r3,r3,r2
   82a98:	e1bffc17 	ldw	r6,-16(fp)
   82a9c:	e0bffd17 	ldw	r2,-12(fp)
   82aa0:	308d883a 	add	r6,r6,r2
   82aa4:	e0800317 	ldw	r2,12(fp)
   82aa8:	3085883a 	add	r2,r6,r2
   82aac:	01800044 	movi	r6,1
   82ab0:	d9800015 	stw	r6,0(sp)
   82ab4:	e1800417 	ldw	r6,16(fp)
   82ab8:	d9800115 	stw	r6,4(sp)
   82abc:	e1800617 	ldw	r6,24(fp)
   82ac0:	d9800215 	stw	r6,8(sp)
   82ac4:	180d883a 	mov	r6,r3
   82ac8:	100f883a 	mov	r7,r2
   82acc:	00810d00 	call	810d0 <vid_draw_line>
          vid_draw_line(cx - y, cy - x, cx + y + straight_width, cy - x, 1, color, display);
   82ad0:	e0fffb17 	ldw	r3,-20(fp)
   82ad4:	e0bffe17 	ldw	r2,-8(fp)
   82ad8:	1889c83a 	sub	r4,r3,r2
   82adc:	e0fffc17 	ldw	r3,-16(fp)
   82ae0:	e0bffd17 	ldw	r2,-12(fp)
   82ae4:	188bc83a 	sub	r5,r3,r2
   82ae8:	e0fffb17 	ldw	r3,-20(fp)
   82aec:	e0bffe17 	ldw	r2,-8(fp)
   82af0:	1887883a 	add	r3,r3,r2
   82af4:	e0800217 	ldw	r2,8(fp)
   82af8:	1887883a 	add	r3,r3,r2
   82afc:	e1bffc17 	ldw	r6,-16(fp)
   82b00:	e0bffd17 	ldw	r2,-12(fp)
   82b04:	3085c83a 	sub	r2,r6,r2
   82b08:	01800044 	movi	r6,1
   82b0c:	d9800015 	stw	r6,0(sp)
   82b10:	e1800417 	ldw	r6,16(fp)
   82b14:	d9800115 	stw	r6,4(sp)
   82b18:	e1800617 	ldw	r6,24(fp)
   82b1c:	d9800215 	stw	r6,8(sp)
   82b20:	180d883a 	mov	r6,r3
   82b24:	100f883a 	mov	r7,r2
   82b28:	00810d00 	call	810d0 <vid_draw_line>
          vid_draw_line(cx - x, cy - y, cx + x + straight_width, cy - y, 1, color, display);
   82b2c:	e0fffb17 	ldw	r3,-20(fp)
   82b30:	e0bffd17 	ldw	r2,-12(fp)
   82b34:	1889c83a 	sub	r4,r3,r2
   82b38:	e0fffc17 	ldw	r3,-16(fp)
   82b3c:	e0bffe17 	ldw	r2,-8(fp)
   82b40:	188bc83a 	sub	r5,r3,r2
   82b44:	e0fffb17 	ldw	r3,-20(fp)
   82b48:	e0bffd17 	ldw	r2,-12(fp)
   82b4c:	1887883a 	add	r3,r3,r2
   82b50:	e0800217 	ldw	r2,8(fp)
   82b54:	1887883a 	add	r3,r3,r2
   82b58:	e1bffc17 	ldw	r6,-16(fp)
   82b5c:	e0bffe17 	ldw	r2,-8(fp)
   82b60:	3085c83a 	sub	r2,r6,r2
   82b64:	01800044 	movi	r6,1
   82b68:	d9800015 	stw	r6,0(sp)
   82b6c:	e1800417 	ldw	r6,16(fp)
   82b70:	d9800115 	stw	r6,4(sp)
   82b74:	e1800617 	ldw	r6,24(fp)
   82b78:	d9800215 	stw	r6,8(sp)
   82b7c:	180d883a 	mov	r6,r3
   82b80:	100f883a 	mov	r7,r2
   82b84:	00810d00 	call	810d0 <vid_draw_line>
   82b88:	00006806 	br	82d2c <vid_round_corner_points+0x744>
        } else {
          vid_set_pixel(cx + x + straight_width, cy + y + straight_height, color, display);
   82b8c:	e0fffb17 	ldw	r3,-20(fp)
   82b90:	e0bffd17 	ldw	r2,-12(fp)
   82b94:	1887883a 	add	r3,r3,r2
   82b98:	e0800217 	ldw	r2,8(fp)
   82b9c:	1889883a 	add	r4,r3,r2
   82ba0:	e0fffc17 	ldw	r3,-16(fp)
   82ba4:	e0bffe17 	ldw	r2,-8(fp)
   82ba8:	1887883a 	add	r3,r3,r2
   82bac:	e0800317 	ldw	r2,12(fp)
   82bb0:	1887883a 	add	r3,r3,r2
   82bb4:	e0800417 	ldw	r2,16(fp)
   82bb8:	180b883a 	mov	r5,r3
   82bbc:	100d883a 	mov	r6,r2
   82bc0:	e1c00617 	ldw	r7,24(fp)
   82bc4:	0081b140 	call	81b14 <vid_set_pixel>
          vid_set_pixel(cx - x, cy + y + straight_height, color, display);
   82bc8:	e0fffb17 	ldw	r3,-20(fp)
   82bcc:	e0bffd17 	ldw	r2,-12(fp)
   82bd0:	1889c83a 	sub	r4,r3,r2
   82bd4:	e0fffc17 	ldw	r3,-16(fp)
   82bd8:	e0bffe17 	ldw	r2,-8(fp)
   82bdc:	1887883a 	add	r3,r3,r2
   82be0:	e0800317 	ldw	r2,12(fp)
   82be4:	1887883a 	add	r3,r3,r2
   82be8:	e0800417 	ldw	r2,16(fp)
   82bec:	180b883a 	mov	r5,r3
   82bf0:	100d883a 	mov	r6,r2
   82bf4:	e1c00617 	ldw	r7,24(fp)
   82bf8:	0081b140 	call	81b14 <vid_set_pixel>
          vid_set_pixel(cx + x + straight_width, cy - y, color, display);
   82bfc:	e0fffb17 	ldw	r3,-20(fp)
   82c00:	e0bffd17 	ldw	r2,-12(fp)
   82c04:	1887883a 	add	r3,r3,r2
   82c08:	e0800217 	ldw	r2,8(fp)
   82c0c:	1889883a 	add	r4,r3,r2
   82c10:	e0fffc17 	ldw	r3,-16(fp)
   82c14:	e0bffe17 	ldw	r2,-8(fp)
   82c18:	1887c83a 	sub	r3,r3,r2
   82c1c:	e0800417 	ldw	r2,16(fp)
   82c20:	180b883a 	mov	r5,r3
   82c24:	100d883a 	mov	r6,r2
   82c28:	e1c00617 	ldw	r7,24(fp)
   82c2c:	0081b140 	call	81b14 <vid_set_pixel>
          vid_set_pixel(cx - x, cy - y, color, display);
   82c30:	e0fffb17 	ldw	r3,-20(fp)
   82c34:	e0bffd17 	ldw	r2,-12(fp)
   82c38:	1889c83a 	sub	r4,r3,r2
   82c3c:	e0fffc17 	ldw	r3,-16(fp)
   82c40:	e0bffe17 	ldw	r2,-8(fp)
   82c44:	1887c83a 	sub	r3,r3,r2
   82c48:	e0800417 	ldw	r2,16(fp)
   82c4c:	180b883a 	mov	r5,r3
   82c50:	100d883a 	mov	r6,r2
   82c54:	e1c00617 	ldw	r7,24(fp)
   82c58:	0081b140 	call	81b14 <vid_set_pixel>
          vid_set_pixel(cx + y + straight_width, cy + x + straight_height, color, display);
   82c5c:	e0fffb17 	ldw	r3,-20(fp)
   82c60:	e0bffe17 	ldw	r2,-8(fp)
   82c64:	1887883a 	add	r3,r3,r2
   82c68:	e0800217 	ldw	r2,8(fp)
   82c6c:	1889883a 	add	r4,r3,r2
   82c70:	e0fffc17 	ldw	r3,-16(fp)
   82c74:	e0bffd17 	ldw	r2,-12(fp)
   82c78:	1887883a 	add	r3,r3,r2
   82c7c:	e0800317 	ldw	r2,12(fp)
   82c80:	1887883a 	add	r3,r3,r2
   82c84:	e0800417 	ldw	r2,16(fp)
   82c88:	180b883a 	mov	r5,r3
   82c8c:	100d883a 	mov	r6,r2
   82c90:	e1c00617 	ldw	r7,24(fp)
   82c94:	0081b140 	call	81b14 <vid_set_pixel>
          vid_set_pixel(cx - y, cy + x + straight_height, color, display);
   82c98:	e0fffb17 	ldw	r3,-20(fp)
   82c9c:	e0bffe17 	ldw	r2,-8(fp)
   82ca0:	1889c83a 	sub	r4,r3,r2
   82ca4:	e0fffc17 	ldw	r3,-16(fp)
   82ca8:	e0bffd17 	ldw	r2,-12(fp)
   82cac:	1887883a 	add	r3,r3,r2
   82cb0:	e0800317 	ldw	r2,12(fp)
   82cb4:	1887883a 	add	r3,r3,r2
   82cb8:	e0800417 	ldw	r2,16(fp)
   82cbc:	180b883a 	mov	r5,r3
   82cc0:	100d883a 	mov	r6,r2
   82cc4:	e1c00617 	ldw	r7,24(fp)
   82cc8:	0081b140 	call	81b14 <vid_set_pixel>
          vid_set_pixel(cx + y + straight_width, cy - x, color, display);
   82ccc:	e0fffb17 	ldw	r3,-20(fp)
   82cd0:	e0bffe17 	ldw	r2,-8(fp)
   82cd4:	1887883a 	add	r3,r3,r2
   82cd8:	e0800217 	ldw	r2,8(fp)
   82cdc:	1889883a 	add	r4,r3,r2
   82ce0:	e0fffc17 	ldw	r3,-16(fp)
   82ce4:	e0bffd17 	ldw	r2,-12(fp)
   82ce8:	1887c83a 	sub	r3,r3,r2
   82cec:	e0800417 	ldw	r2,16(fp)
   82cf0:	180b883a 	mov	r5,r3
   82cf4:	100d883a 	mov	r6,r2
   82cf8:	e1c00617 	ldw	r7,24(fp)
   82cfc:	0081b140 	call	81b14 <vid_set_pixel>
          vid_set_pixel(cx - y, cy - x, color, display);
   82d00:	e0fffb17 	ldw	r3,-20(fp)
   82d04:	e0bffe17 	ldw	r2,-8(fp)
   82d08:	1889c83a 	sub	r4,r3,r2
   82d0c:	e0fffc17 	ldw	r3,-16(fp)
   82d10:	e0bffd17 	ldw	r2,-12(fp)
   82d14:	1887c83a 	sub	r3,r3,r2
   82d18:	e0800417 	ldw	r2,16(fp)
   82d1c:	180b883a 	mov	r5,r3
   82d20:	100d883a 	mov	r6,r2
   82d24:	e1c00617 	ldw	r7,24(fp)
   82d28:	0081b140 	call	81b14 <vid_set_pixel>
        }
    }
}
   82d2c:	e037883a 	mov	sp,fp
   82d30:	dfc00117 	ldw	ra,4(sp)
   82d34:	df000017 	ldw	fp,0(sp)
   82d38:	dec00204 	addi	sp,sp,8
   82d3c:	f800283a 	ret

00082d40 <max3>:
*  Purpose:  Returns the minimum value of 3 parameters
*            Used for drawing filled shapes
*
******************************************************************/
__inline__ int max3( int a, int b, int c )
{
   82d40:	defffc04 	addi	sp,sp,-16
   82d44:	df000315 	stw	fp,12(sp)
   82d48:	df000304 	addi	fp,sp,12
   82d4c:	e13ffd15 	stw	r4,-12(fp)
   82d50:	e17ffe15 	stw	r5,-8(fp)
   82d54:	e1bfff15 	stw	r6,-4(fp)
  if( a < b )
   82d58:	e0fffd17 	ldw	r3,-12(fp)
   82d5c:	e0bffe17 	ldw	r2,-8(fp)
   82d60:	1880020e 	bge	r3,r2,82d6c <max3+0x2c>
    a = b;
   82d64:	e0bffe17 	ldw	r2,-8(fp)
   82d68:	e0bffd15 	stw	r2,-12(fp)
  if( a < c )
   82d6c:	e0fffd17 	ldw	r3,-12(fp)
   82d70:	e0bfff17 	ldw	r2,-4(fp)
   82d74:	1880020e 	bge	r3,r2,82d80 <max3+0x40>
    a = c;
   82d78:	e0bfff17 	ldw	r2,-4(fp)
   82d7c:	e0bffd15 	stw	r2,-12(fp)
  
  return a;
   82d80:	e0bffd17 	ldw	r2,-12(fp)
}
   82d84:	e037883a 	mov	sp,fp
   82d88:	df000017 	ldw	fp,0(sp)
   82d8c:	dec00104 	addi	sp,sp,4
   82d90:	f800283a 	ret

00082d94 <min3>:
*  Purpose:  Returns the minimum value of 3 parameters
*            Used for drawing filled shapes.
*
******************************************************************/
__inline__ int min3( int a, int b, int c )
{
   82d94:	defffc04 	addi	sp,sp,-16
   82d98:	df000315 	stw	fp,12(sp)
   82d9c:	df000304 	addi	fp,sp,12
   82da0:	e13ffd15 	stw	r4,-12(fp)
   82da4:	e17ffe15 	stw	r5,-8(fp)
   82da8:	e1bfff15 	stw	r6,-4(fp)
  if( a > b )
   82dac:	e0bffd17 	ldw	r2,-12(fp)
   82db0:	e0fffe17 	ldw	r3,-8(fp)
   82db4:	1880020e 	bge	r3,r2,82dc0 <min3+0x2c>
    a = b;
   82db8:	e0bffe17 	ldw	r2,-8(fp)
   82dbc:	e0bffd15 	stw	r2,-12(fp)
  if( a > c )
   82dc0:	e0bffd17 	ldw	r2,-12(fp)
   82dc4:	e0ffff17 	ldw	r3,-4(fp)
   82dc8:	1880020e 	bge	r3,r2,82dd4 <min3+0x40>
    a = c;
   82dcc:	e0bfff17 	ldw	r2,-4(fp)
   82dd0:	e0bffd15 	stw	r2,-12(fp)
  
  return a;
   82dd4:	e0bffd17 	ldw	r2,-12(fp)
}
   82dd8:	e037883a 	mov	sp,fp
   82ddc:	df000017 	ldw	fp,0(sp)
   82de0:	dec00104 	addi	sp,sp,4
   82de4:	f800283a 	ret

00082de8 <max_diff3>:
*  Purpose:  Returns the positive max difference between 3 
*            parameters.  Used for drawing filled shapes
*
******************************************************************/
__inline__ int max_diff3(int a, int b, int c)
{
   82de8:	defff904 	addi	sp,sp,-28
   82dec:	dfc00615 	stw	ra,24(sp)
   82df0:	df000515 	stw	fp,20(sp)
   82df4:	df000504 	addi	fp,sp,20
   82df8:	e13ffd15 	stw	r4,-12(fp)
   82dfc:	e17ffe15 	stw	r5,-8(fp)
   82e00:	e1bfff15 	stw	r6,-4(fp)
  int max, min;
    
  max = max3( a, b, c );
   82e04:	e13ffd17 	ldw	r4,-12(fp)
   82e08:	e17ffe17 	ldw	r5,-8(fp)
   82e0c:	e1bfff17 	ldw	r6,-4(fp)
   82e10:	0082d400 	call	82d40 <max3>
   82e14:	e0bffb15 	stw	r2,-20(fp)
  min = min3( a, b, c );
   82e18:	e13ffd17 	ldw	r4,-12(fp)
   82e1c:	e17ffe17 	ldw	r5,-8(fp)
   82e20:	e1bfff17 	ldw	r6,-4(fp)
   82e24:	0082d940 	call	82d94 <min3>
   82e28:	e0bffc15 	stw	r2,-16(fp)
  return (max - min);
   82e2c:	e0fffb17 	ldw	r3,-20(fp)
   82e30:	e0bffc17 	ldw	r2,-16(fp)
   82e34:	1885c83a 	sub	r2,r3,r2
}
   82e38:	e037883a 	mov	sp,fp
   82e3c:	dfc00117 	ldw	ra,4(sp)
   82e40:	df000017 	ldw	fp,0(sp)
   82e44:	dec00204 	addi	sp,sp,8
   82e48:	f800283a 	ret

00082e4c <vid_put_pixel_in_span_map>:
*            min value of an element that represents a span, 
*            essentially just a horizontal line used to fill shapes.
*
******************************************************************/
inline void vid_put_pixel_in_span_map( int x, int y, int *span_array )
{
   82e4c:	defffc04 	addi	sp,sp,-16
   82e50:	df000315 	stw	fp,12(sp)
   82e54:	df000304 	addi	fp,sp,12
   82e58:	e13ffd15 	stw	r4,-12(fp)
   82e5c:	e17ffe15 	stw	r5,-8(fp)
   82e60:	e1bfff15 	stw	r6,-4(fp)
  if (span_array[y*2] == -1)
   82e64:	e0bffe17 	ldw	r2,-8(fp)
   82e68:	100490fa 	slli	r2,r2,3
   82e6c:	e0ffff17 	ldw	r3,-4(fp)
   82e70:	1885883a 	add	r2,r3,r2
   82e74:	10800017 	ldw	r2,0(r2)
   82e78:	10bfffd8 	cmpnei	r2,r2,-1
   82e7c:	10000e1e 	bne	r2,zero,82eb8 <vid_put_pixel_in_span_map+0x6c>
  {
    span_array[y*2] = x;
   82e80:	e0bffe17 	ldw	r2,-8(fp)
   82e84:	100490fa 	slli	r2,r2,3
   82e88:	e0ffff17 	ldw	r3,-4(fp)
   82e8c:	1885883a 	add	r2,r3,r2
   82e90:	e0fffd17 	ldw	r3,-12(fp)
   82e94:	10c00015 	stw	r3,0(r2)
    span_array[(y*2)+1] = x;
   82e98:	e0bffe17 	ldw	r2,-8(fp)
   82e9c:	100490fa 	slli	r2,r2,3
   82ea0:	10800104 	addi	r2,r2,4
   82ea4:	e0ffff17 	ldw	r3,-4(fp)
   82ea8:	1885883a 	add	r2,r3,r2
   82eac:	e0fffd17 	ldw	r3,-12(fp)
   82eb0:	10c00015 	stw	r3,0(r2)
   82eb4:	00001d06 	br	82f2c <vid_put_pixel_in_span_map+0xe0>
  }
  else if( span_array[y*2] > x )
   82eb8:	e0bffe17 	ldw	r2,-8(fp)
   82ebc:	100490fa 	slli	r2,r2,3
   82ec0:	e0ffff17 	ldw	r3,-4(fp)
   82ec4:	1885883a 	add	r2,r3,r2
   82ec8:	10800017 	ldw	r2,0(r2)
   82ecc:	e0fffd17 	ldw	r3,-12(fp)
   82ed0:	1880070e 	bge	r3,r2,82ef0 <vid_put_pixel_in_span_map+0xa4>
    span_array[y*2] = x;
   82ed4:	e0bffe17 	ldw	r2,-8(fp)
   82ed8:	100490fa 	slli	r2,r2,3
   82edc:	e0ffff17 	ldw	r3,-4(fp)
   82ee0:	1885883a 	add	r2,r3,r2
   82ee4:	e0fffd17 	ldw	r3,-12(fp)
   82ee8:	10c00015 	stw	r3,0(r2)
   82eec:	00000f06 	br	82f2c <vid_put_pixel_in_span_map+0xe0>
  else if( span_array[(y*2)+1] < x )
   82ef0:	e0bffe17 	ldw	r2,-8(fp)
   82ef4:	100490fa 	slli	r2,r2,3
   82ef8:	10800104 	addi	r2,r2,4
   82efc:	e0ffff17 	ldw	r3,-4(fp)
   82f00:	1885883a 	add	r2,r3,r2
   82f04:	10c00017 	ldw	r3,0(r2)
   82f08:	e0bffd17 	ldw	r2,-12(fp)
   82f0c:	1880070e 	bge	r3,r2,82f2c <vid_put_pixel_in_span_map+0xe0>
    span_array[(y*2)+1] = x;
   82f10:	e0bffe17 	ldw	r2,-8(fp)
   82f14:	100490fa 	slli	r2,r2,3
   82f18:	10800104 	addi	r2,r2,4
   82f1c:	e0ffff17 	ldw	r3,-4(fp)
   82f20:	1885883a 	add	r2,r3,r2
   82f24:	e0fffd17 	ldw	r3,-12(fp)
   82f28:	10c00015 	stw	r3,0(r2)
}
   82f2c:	e037883a 	mov	sp,fp
   82f30:	df000017 	ldw	fp,0(sp)
   82f34:	dec00104 	addi	sp,sp,4
   82f38:	f800283a 	ret

00082f3c <vid_bres_scan_edges>:
*            filled shapes where you fill by drawing successive
*            horizontal lines.
*
******************************************************************/
void vid_bres_scan_edges( int x1, int y1, int x2, int y2, int *span_array) 
{
   82f3c:	deffee04 	addi	sp,sp,-72
   82f40:	dfc01115 	stw	ra,68(sp)
   82f44:	df001015 	stw	fp,64(sp)
   82f48:	df001004 	addi	fp,sp,64
   82f4c:	e13ffc15 	stw	r4,-16(fp)
   82f50:	e17ffd15 	stw	r5,-12(fp)
   82f54:	e1bffe15 	stw	r6,-8(fp)
   82f58:	e1ffff15 	stw	r7,-4(fp)

  int x_incr, y_incr;
  int y_delta, x_delta;

  // Assure we always draw left to right
  if( x1 > x2 )
   82f5c:	e0bffc17 	ldw	r2,-16(fp)
   82f60:	e0fffe17 	ldw	r3,-8(fp)
   82f64:	18800c0e 	bge	r3,r2,82f98 <vid_bres_scan_edges+0x5c>
  {
    int tempx = x2;
   82f68:	e0bffe17 	ldw	r2,-8(fp)
   82f6c:	e0bff515 	stw	r2,-44(fp)
    x2 = x1;
   82f70:	e0bffc17 	ldw	r2,-16(fp)
   82f74:	e0bffe15 	stw	r2,-8(fp)
    x1 = tempx;
   82f78:	e0bff517 	ldw	r2,-44(fp)
   82f7c:	e0bffc15 	stw	r2,-16(fp)
    int tempy = y2;
   82f80:	e0bfff17 	ldw	r2,-4(fp)
   82f84:	e0bff615 	stw	r2,-40(fp)
    y2 = y1;
   82f88:	e0bffd17 	ldw	r2,-12(fp)
   82f8c:	e0bfff15 	stw	r2,-4(fp)
    y1 = tempy;
   82f90:	e0bff617 	ldw	r2,-40(fp)
   82f94:	e0bffd15 	stw	r2,-12(fp)
  }
  
  // Find the vertical and horizontal distance between the two points
  y_delta = abs(y1-y2);
   82f98:	e0fffd17 	ldw	r3,-12(fp)
   82f9c:	e0bfff17 	ldw	r2,-4(fp)
   82fa0:	1885c83a 	sub	r2,r3,r2
   82fa4:	1000010e 	bge	r2,zero,82fac <vid_bres_scan_edges+0x70>
   82fa8:	0085c83a 	sub	r2,zero,r2
   82fac:	e0bff115 	stw	r2,-60(fp)
  x_delta = (x2-x1);
   82fb0:	e0fffe17 	ldw	r3,-8(fp)
   82fb4:	e0bffc17 	ldw	r2,-16(fp)
   82fb8:	1885c83a 	sub	r2,r3,r2
   82fbc:	e0bff215 	stw	r2,-56(fp)

  // Find out what direction we are going
  if (y1 > y2) { y_incr=-1; } else { y_incr=1; }
   82fc0:	e0bffd17 	ldw	r2,-12(fp)
   82fc4:	e0ffff17 	ldw	r3,-4(fp)
   82fc8:	1880030e 	bge	r3,r2,82fd8 <vid_bres_scan_edges+0x9c>
   82fcc:	00bfffc4 	movi	r2,-1
   82fd0:	e0bff015 	stw	r2,-64(fp)
   82fd4:	00000206 	br	82fe0 <vid_bres_scan_edges+0xa4>
   82fd8:	00800044 	movi	r2,1
   82fdc:	e0bff015 	stw	r2,-64(fp)
  x_incr=1;
   82fe0:	00800044 	movi	r2,1
   82fe4:	e0bff715 	stw	r2,-36(fp)

  // Find out which axis is always incremented when drawing the line
  // If it's the horizontal axis
  if (x_delta >= y_delta) {
   82fe8:	e0fff217 	ldw	r3,-56(fp)
   82fec:	e0bff117 	ldw	r2,-60(fp)
   82ff0:	18802e16 	blt	r3,r2,830ac <vid_bres_scan_edges+0x170>
    int dPr   = y_delta<<1;
   82ff4:	e0bff117 	ldw	r2,-60(fp)
   82ff8:	1085883a 	add	r2,r2,r2
   82ffc:	e0bff815 	stw	r2,-32(fp)
    int dPru  = dPr - (x_delta<<1);
   83000:	e0bff217 	ldw	r2,-56(fp)
   83004:	1085883a 	add	r2,r2,r2
   83008:	e0fff817 	ldw	r3,-32(fp)
   8300c:	1885c83a 	sub	r2,r3,r2
   83010:	e0bff915 	stw	r2,-28(fp)
    int P     = dPr - x_delta;
   83014:	e0fff817 	ldw	r3,-32(fp)
   83018:	e0bff217 	ldw	r2,-56(fp)
   8301c:	1885c83a 	sub	r2,r3,r2
   83020:	e0bff315 	stw	r2,-52(fp)

    // Process the line, one horizontal point at at time
    for (; x_delta >= 0; x_delta--) {
   83024:	00001e06 	br	830a0 <vid_bres_scan_edges+0x164>
      // map the pixel
      vid_put_pixel_in_span_map(x1, y1, span_array);
   83028:	e13ffc17 	ldw	r4,-16(fp)
   8302c:	e17ffd17 	ldw	r5,-12(fp)
   83030:	e1800217 	ldw	r6,8(fp)
   83034:	0082e4c0 	call	82e4c <vid_put_pixel_in_span_map>
      // If we're moving along both axis
      if (P > 0) {
   83038:	e0bff317 	ldw	r2,-52(fp)
   8303c:	00800d0e 	bge	zero,r2,83074 <vid_bres_scan_edges+0x138>
        x1+=x_incr;
   83040:	e0fffc17 	ldw	r3,-16(fp)
   83044:	e0bff717 	ldw	r2,-36(fp)
   83048:	1885883a 	add	r2,r3,r2
   8304c:	e0bffc15 	stw	r2,-16(fp)
        y1+=y_incr;
   83050:	e0fffd17 	ldw	r3,-12(fp)
   83054:	e0bff017 	ldw	r2,-64(fp)
   83058:	1885883a 	add	r2,r3,r2
   8305c:	e0bffd15 	stw	r2,-12(fp)
        P+=dPru;
   83060:	e0fff317 	ldw	r3,-52(fp)
   83064:	e0bff917 	ldw	r2,-28(fp)
   83068:	1885883a 	add	r2,r3,r2
   8306c:	e0bff315 	stw	r2,-52(fp)
   83070:	00000806 	br	83094 <vid_bres_scan_edges+0x158>
      } else {
        x1+=x_incr;
   83074:	e0fffc17 	ldw	r3,-16(fp)
   83078:	e0bff717 	ldw	r2,-36(fp)
   8307c:	1885883a 	add	r2,r3,r2
   83080:	e0bffc15 	stw	r2,-16(fp)
        P+=dPr;
   83084:	e0fff317 	ldw	r3,-52(fp)
   83088:	e0bff817 	ldw	r2,-32(fp)
   8308c:	1885883a 	add	r2,r3,r2
   83090:	e0bff315 	stw	r2,-52(fp)
    int dPr   = y_delta<<1;
    int dPru  = dPr - (x_delta<<1);
    int P     = dPr - x_delta;

    // Process the line, one horizontal point at at time
    for (; x_delta >= 0; x_delta--) {
   83094:	e0bff217 	ldw	r2,-56(fp)
   83098:	10bfffc4 	addi	r2,r2,-1
   8309c:	e0bff215 	stw	r2,-56(fp)
   830a0:	e0bff217 	ldw	r2,-56(fp)
   830a4:	103fe00e 	bge	r2,zero,83028 <vid_bres_scan_edges+0xec>
   830a8:	00002d06 	br	83160 <vid_bres_scan_edges+0x224>
      }
    }
  }
  else // If it's the vertical axis
  {
    int dPr   = x_delta<<1;
   830ac:	e0bff217 	ldw	r2,-56(fp)
   830b0:	1085883a 	add	r2,r2,r2
   830b4:	e0bffa15 	stw	r2,-24(fp)
    int dPru  = dPr - (y_delta<<1);
   830b8:	e0bff117 	ldw	r2,-60(fp)
   830bc:	1085883a 	add	r2,r2,r2
   830c0:	e0fffa17 	ldw	r3,-24(fp)
   830c4:	1885c83a 	sub	r2,r3,r2
   830c8:	e0bffb15 	stw	r2,-20(fp)
    int P     = dPr - y_delta;
   830cc:	e0fffa17 	ldw	r3,-24(fp)
   830d0:	e0bff117 	ldw	r2,-60(fp)
   830d4:	1885c83a 	sub	r2,r3,r2
   830d8:	e0bff415 	stw	r2,-48(fp)

    // Process the line, one vertical point at at time
    for (; y_delta>=0; y_delta--) {
   830dc:	00001e06 	br	83158 <vid_bres_scan_edges+0x21c>
      // plot the pixel
      vid_put_pixel_in_span_map(x1, y1, span_array);
   830e0:	e13ffc17 	ldw	r4,-16(fp)
   830e4:	e17ffd17 	ldw	r5,-12(fp)
   830e8:	e1800217 	ldw	r6,8(fp)
   830ec:	0082e4c0 	call	82e4c <vid_put_pixel_in_span_map>
      // If we're moving along both axis
      if (P > 0) {
   830f0:	e0bff417 	ldw	r2,-48(fp)
   830f4:	00800d0e 	bge	zero,r2,8312c <vid_bres_scan_edges+0x1f0>
        x1+=x_incr;
   830f8:	e0fffc17 	ldw	r3,-16(fp)
   830fc:	e0bff717 	ldw	r2,-36(fp)
   83100:	1885883a 	add	r2,r3,r2
   83104:	e0bffc15 	stw	r2,-16(fp)
        y1+=y_incr;
   83108:	e0fffd17 	ldw	r3,-12(fp)
   8310c:	e0bff017 	ldw	r2,-64(fp)
   83110:	1885883a 	add	r2,r3,r2
   83114:	e0bffd15 	stw	r2,-12(fp)
        P+=dPru;
   83118:	e0fff417 	ldw	r3,-48(fp)
   8311c:	e0bffb17 	ldw	r2,-20(fp)
   83120:	1885883a 	add	r2,r3,r2
   83124:	e0bff415 	stw	r2,-48(fp)
   83128:	00000806 	br	8314c <vid_bres_scan_edges+0x210>
      } else {
        y1+=y_incr;
   8312c:	e0fffd17 	ldw	r3,-12(fp)
   83130:	e0bff017 	ldw	r2,-64(fp)
   83134:	1885883a 	add	r2,r3,r2
   83138:	e0bffd15 	stw	r2,-12(fp)
        P+=dPr;
   8313c:	e0fff417 	ldw	r3,-48(fp)
   83140:	e0bffa17 	ldw	r2,-24(fp)
   83144:	1885883a 	add	r2,r3,r2
   83148:	e0bff415 	stw	r2,-48(fp)
    int dPr   = x_delta<<1;
    int dPru  = dPr - (y_delta<<1);
    int P     = dPr - y_delta;

    // Process the line, one vertical point at at time
    for (; y_delta>=0; y_delta--) {
   8314c:	e0bff117 	ldw	r2,-60(fp)
   83150:	10bfffc4 	addi	r2,r2,-1
   83154:	e0bff115 	stw	r2,-60(fp)
   83158:	e0bff117 	ldw	r2,-60(fp)
   8315c:	103fe00e 	bge	r2,zero,830e0 <vid_bres_scan_edges+0x1a4>
        y1+=y_incr;
        P+=dPr;
      }
    }
  }
}
   83160:	e037883a 	mov	sp,fp
   83164:	dfc00117 	ldw	ra,4(sp)
   83168:	df000017 	ldw	fp,0(sp)
   8316c:	dec00204 	addi	sp,sp,8
   83170:	f800283a 	ret

00083174 <vid_draw_triangle>:
*  Purpose:  This function draws a triangle on the screen between
*            three points defined by the structure tri.
*
******************************************************************/
void vid_draw_triangle(triangle_struct* tri, alt_video_display* display)
{
   83174:	defff804 	addi	sp,sp,-32
   83178:	dfc00715 	stw	ra,28(sp)
   8317c:	df000615 	stw	fp,24(sp)
   83180:	df000604 	addi	fp,sp,24
   83184:	e13ffe15 	stw	r4,-8(fp)
   83188:	e17fff15 	stw	r5,-4(fp)
  int i;
  
  // Outline it first
    vid_draw_line( tri->vertex_x[0], tri->vertex_y[0], 
   8318c:	e0bffe17 	ldw	r2,-8(fp)
   83190:	11000017 	ldw	r4,0(r2)
   83194:	e0bffe17 	ldw	r2,-8(fp)
   83198:	11400317 	ldw	r5,12(r2)
                   tri->vertex_x[1], tri->vertex_y[1], 1, 
   8319c:	e0bffe17 	ldw	r2,-8(fp)
void vid_draw_triangle(triangle_struct* tri, alt_video_display* display)
{
  int i;
  
  // Outline it first
    vid_draw_line( tri->vertex_x[0], tri->vertex_y[0], 
   831a0:	10c00117 	ldw	r3,4(r2)
                   tri->vertex_x[1], tri->vertex_y[1], 1, 
   831a4:	e0bffe17 	ldw	r2,-8(fp)
void vid_draw_triangle(triangle_struct* tri, alt_video_display* display)
{
  int i;
  
  // Outline it first
    vid_draw_line( tri->vertex_x[0], tri->vertex_y[0], 
   831a8:	10800417 	ldw	r2,16(r2)
                   tri->vertex_x[1], tri->vertex_y[1], 1, 
                   tri->col, display);
   831ac:	e1bffe17 	ldw	r6,-8(fp)
void vid_draw_triangle(triangle_struct* tri, alt_video_display* display)
{
  int i;
  
  // Outline it first
    vid_draw_line( tri->vertex_x[0], tri->vertex_y[0], 
   831b0:	31800a17 	ldw	r6,40(r6)
   831b4:	01c00044 	movi	r7,1
   831b8:	d9c00015 	stw	r7,0(sp)
   831bc:	d9800115 	stw	r6,4(sp)
   831c0:	e1bfff17 	ldw	r6,-4(fp)
   831c4:	d9800215 	stw	r6,8(sp)
   831c8:	180d883a 	mov	r6,r3
   831cc:	100f883a 	mov	r7,r2
   831d0:	00810d00 	call	810d0 <vid_draw_line>
                   tri->vertex_x[1], tri->vertex_y[1], 1, 
                   tri->col, display);
    vid_draw_line( tri->vertex_x[1], tri->vertex_y[1], 
   831d4:	e0bffe17 	ldw	r2,-8(fp)
   831d8:	11000117 	ldw	r4,4(r2)
   831dc:	e0bffe17 	ldw	r2,-8(fp)
   831e0:	11400417 	ldw	r5,16(r2)
                   tri->vertex_x[2], tri->vertex_y[2], 1, 
   831e4:	e0bffe17 	ldw	r2,-8(fp)
  
  // Outline it first
    vid_draw_line( tri->vertex_x[0], tri->vertex_y[0], 
                   tri->vertex_x[1], tri->vertex_y[1], 1, 
                   tri->col, display);
    vid_draw_line( tri->vertex_x[1], tri->vertex_y[1], 
   831e8:	10c00217 	ldw	r3,8(r2)
                   tri->vertex_x[2], tri->vertex_y[2], 1, 
   831ec:	e0bffe17 	ldw	r2,-8(fp)
  
  // Outline it first
    vid_draw_line( tri->vertex_x[0], tri->vertex_y[0], 
                   tri->vertex_x[1], tri->vertex_y[1], 1, 
                   tri->col, display);
    vid_draw_line( tri->vertex_x[1], tri->vertex_y[1], 
   831f0:	10800517 	ldw	r2,20(r2)
                   tri->vertex_x[2], tri->vertex_y[2], 1, 
                   tri->col, display);
   831f4:	e1bffe17 	ldw	r6,-8(fp)
  
  // Outline it first
    vid_draw_line( tri->vertex_x[0], tri->vertex_y[0], 
                   tri->vertex_x[1], tri->vertex_y[1], 1, 
                   tri->col, display);
    vid_draw_line( tri->vertex_x[1], tri->vertex_y[1], 
   831f8:	31800a17 	ldw	r6,40(r6)
   831fc:	01c00044 	movi	r7,1
   83200:	d9c00015 	stw	r7,0(sp)
   83204:	d9800115 	stw	r6,4(sp)
   83208:	e1bfff17 	ldw	r6,-4(fp)
   8320c:	d9800215 	stw	r6,8(sp)
   83210:	180d883a 	mov	r6,r3
   83214:	100f883a 	mov	r7,r2
   83218:	00810d00 	call	810d0 <vid_draw_line>
                   tri->vertex_x[2], tri->vertex_y[2], 1, 
                   tri->col, display);
    vid_draw_line( tri->vertex_x[2], tri->vertex_y[2], 
   8321c:	e0bffe17 	ldw	r2,-8(fp)
   83220:	11000217 	ldw	r4,8(r2)
   83224:	e0bffe17 	ldw	r2,-8(fp)
   83228:	11400517 	ldw	r5,20(r2)
                   tri->vertex_x[0], tri->vertex_y[0], 1, 
   8322c:	e0bffe17 	ldw	r2,-8(fp)
                   tri->vertex_x[1], tri->vertex_y[1], 1, 
                   tri->col, display);
    vid_draw_line( tri->vertex_x[1], tri->vertex_y[1], 
                   tri->vertex_x[2], tri->vertex_y[2], 1, 
                   tri->col, display);
    vid_draw_line( tri->vertex_x[2], tri->vertex_y[2], 
   83230:	10c00017 	ldw	r3,0(r2)
                   tri->vertex_x[0], tri->vertex_y[0], 1, 
   83234:	e0bffe17 	ldw	r2,-8(fp)
                   tri->vertex_x[1], tri->vertex_y[1], 1, 
                   tri->col, display);
    vid_draw_line( tri->vertex_x[1], tri->vertex_y[1], 
                   tri->vertex_x[2], tri->vertex_y[2], 1, 
                   tri->col, display);
    vid_draw_line( tri->vertex_x[2], tri->vertex_y[2], 
   83238:	10800317 	ldw	r2,12(r2)
                   tri->vertex_x[0], tri->vertex_y[0], 1, 
                   tri->col, display);
   8323c:	e1bffe17 	ldw	r6,-8(fp)
                   tri->vertex_x[1], tri->vertex_y[1], 1, 
                   tri->col, display);
    vid_draw_line( tri->vertex_x[1], tri->vertex_y[1], 
                   tri->vertex_x[2], tri->vertex_y[2], 1, 
                   tri->col, display);
    vid_draw_line( tri->vertex_x[2], tri->vertex_y[2], 
   83240:	31800a17 	ldw	r6,40(r6)
   83244:	01c00044 	movi	r7,1
   83248:	d9c00015 	stw	r7,0(sp)
   8324c:	d9800115 	stw	r6,4(sp)
   83250:	e1bfff17 	ldw	r6,-4(fp)
   83254:	d9800215 	stw	r6,8(sp)
   83258:	180d883a 	mov	r6,r3
   8325c:	100f883a 	mov	r7,r2
   83260:	00810d00 	call	810d0 <vid_draw_line>
                   tri->vertex_x[0], tri->vertex_y[0], 1, 
                   tri->col, display);
//  vid_draw_line(tri->bx, tri->by, tri->cx, tri->cy, 1, tri->col, display);
//  vid_draw_line(tri->cx, tri->cy, tri->ax, tri->ay, 1, tri->col, display);
  
  if(tri->fill == DO_FILL)
   83264:	e0bffe17 	ldw	r2,-8(fp)
   83268:	10800b17 	ldw	r2,44(r2)
   8326c:	10800058 	cmpnei	r2,r2,1
   83270:	1000a01e 	bne	r2,zero,834f4 <vid_draw_triangle+0x380>
  {
    tri->top_y = min3(tri->vertex_y[0], tri->vertex_y[1], tri->vertex_y[2]);
   83274:	e0bffe17 	ldw	r2,-8(fp)
   83278:	11000317 	ldw	r4,12(r2)
   8327c:	e0bffe17 	ldw	r2,-8(fp)
   83280:	10c00417 	ldw	r3,16(r2)
   83284:	e0bffe17 	ldw	r2,-8(fp)
   83288:	10800517 	ldw	r2,20(r2)
   8328c:	180b883a 	mov	r5,r3
   83290:	100d883a 	mov	r6,r2
   83294:	0082d940 	call	82d94 <min3>
   83298:	e0fffe17 	ldw	r3,-8(fp)
   8329c:	18800815 	stw	r2,32(r3)
    tri->bottom_y = max3(tri->vertex_y[0], tri->vertex_y[1], tri->vertex_y[2]);
   832a0:	e0bffe17 	ldw	r2,-8(fp)
   832a4:	11000317 	ldw	r4,12(r2)
   832a8:	e0bffe17 	ldw	r2,-8(fp)
   832ac:	10c00417 	ldw	r3,16(r2)
   832b0:	e0bffe17 	ldw	r2,-8(fp)
   832b4:	10800517 	ldw	r2,20(r2)
   832b8:	180b883a 	mov	r5,r3
   832bc:	100d883a 	mov	r6,r2
   832c0:	0082d400 	call	82d40 <max3>
   832c4:	e0fffe17 	ldw	r3,-8(fp)
   832c8:	18800915 	stw	r2,36(r3)
    tri->spans_needed = max_diff3(tri->vertex_y[0], tri->vertex_y[1], tri->vertex_y[2]);
   832cc:	e0bffe17 	ldw	r2,-8(fp)
   832d0:	11000317 	ldw	r4,12(r2)
   832d4:	e0bffe17 	ldw	r2,-8(fp)
   832d8:	10c00417 	ldw	r3,16(r2)
   832dc:	e0bffe17 	ldw	r2,-8(fp)
   832e0:	10800517 	ldw	r2,20(r2)
   832e4:	180b883a 	mov	r5,r3
   832e8:	100d883a 	mov	r6,r2
   832ec:	0082de80 	call	82de8 <max_diff3>
   832f0:	e0fffe17 	ldw	r3,-8(fp)
   832f4:	18800615 	stw	r2,24(r3)
    tri->max_span = max_diff3(tri->vertex_x[0], tri->vertex_x[1], tri->vertex_x[2]);
   832f8:	e0bffe17 	ldw	r2,-8(fp)
   832fc:	11000017 	ldw	r4,0(r2)
   83300:	e0bffe17 	ldw	r2,-8(fp)
   83304:	10c00117 	ldw	r3,4(r2)
   83308:	e0bffe17 	ldw	r2,-8(fp)
   8330c:	10800217 	ldw	r2,8(r2)
   83310:	180b883a 	mov	r5,r3
   83314:	100d883a 	mov	r6,r2
   83318:	0082de80 	call	82de8 <max_diff3>
   8331c:	e0fffe17 	ldw	r3,-8(fp)
   83320:	18800715 	stw	r2,28(r3)
    tri->span_array = malloc(display->height * 4 * 2);
   83324:	e0bfff17 	ldw	r2,-4(fp)
   83328:	10800217 	ldw	r2,8(r2)
   8332c:	100490fa 	slli	r2,r2,3
   83330:	1009883a 	mov	r4,r2
   83334:	00888d80 	call	888d8 <malloc>
   83338:	1007883a 	mov	r3,r2
   8333c:	e0bffe17 	ldw	r2,-8(fp)
   83340:	10c00d15 	stw	r3,52(r2)

    //init the span array
    for( i = tri->top_y; i <= tri->bottom_y; i++)
   83344:	e0bffe17 	ldw	r2,-8(fp)
   83348:	10800817 	ldw	r2,32(r2)
   8334c:	e0bffd15 	stw	r2,-12(fp)
   83350:	00001206 	br	8339c <vid_draw_triangle+0x228>
    {
      tri->span_array[i*2] = -1;
   83354:	e0bffe17 	ldw	r2,-8(fp)
   83358:	10c00d17 	ldw	r3,52(r2)
   8335c:	e0bffd17 	ldw	r2,-12(fp)
   83360:	100490fa 	slli	r2,r2,3
   83364:	1885883a 	add	r2,r3,r2
   83368:	00ffffc4 	movi	r3,-1
   8336c:	10c00015 	stw	r3,0(r2)
      tri->span_array[(i*2) + 1] = -1;
   83370:	e0bffe17 	ldw	r2,-8(fp)
   83374:	10c00d17 	ldw	r3,52(r2)
   83378:	e0bffd17 	ldw	r2,-12(fp)
   8337c:	100490fa 	slli	r2,r2,3
   83380:	10800104 	addi	r2,r2,4
   83384:	1885883a 	add	r2,r3,r2
   83388:	00ffffc4 	movi	r3,-1
   8338c:	10c00015 	stw	r3,0(r2)
    tri->spans_needed = max_diff3(tri->vertex_y[0], tri->vertex_y[1], tri->vertex_y[2]);
    tri->max_span = max_diff3(tri->vertex_x[0], tri->vertex_x[1], tri->vertex_x[2]);
    tri->span_array = malloc(display->height * 4 * 2);

    //init the span array
    for( i = tri->top_y; i <= tri->bottom_y; i++)
   83390:	e0bffd17 	ldw	r2,-12(fp)
   83394:	10800044 	addi	r2,r2,1
   83398:	e0bffd15 	stw	r2,-12(fp)
   8339c:	e0bffe17 	ldw	r2,-8(fp)
   833a0:	10c00917 	ldw	r3,36(r2)
   833a4:	e0bffd17 	ldw	r2,-12(fp)
   833a8:	18bfea0e 	bge	r3,r2,83354 <vid_draw_triangle+0x1e0>
      tri->span_array[i*2] = -1;
      tri->span_array[(i*2) + 1] = -1;
    }
    
    // Scan-convert the triangle  
    vid_bres_scan_edges( tri->vertex_x[0], tri->vertex_y[0], 
   833ac:	e0bffe17 	ldw	r2,-8(fp)
   833b0:	11000017 	ldw	r4,0(r2)
   833b4:	e0bffe17 	ldw	r2,-8(fp)
   833b8:	11400317 	ldw	r5,12(r2)
                         tri->vertex_x[1], tri->vertex_y[1], tri->span_array);
   833bc:	e0bffe17 	ldw	r2,-8(fp)
      tri->span_array[i*2] = -1;
      tri->span_array[(i*2) + 1] = -1;
    }
    
    // Scan-convert the triangle  
    vid_bres_scan_edges( tri->vertex_x[0], tri->vertex_y[0], 
   833c0:	10c00117 	ldw	r3,4(r2)
                         tri->vertex_x[1], tri->vertex_y[1], tri->span_array);
   833c4:	e0bffe17 	ldw	r2,-8(fp)
      tri->span_array[i*2] = -1;
      tri->span_array[(i*2) + 1] = -1;
    }
    
    // Scan-convert the triangle  
    vid_bres_scan_edges( tri->vertex_x[0], tri->vertex_y[0], 
   833c8:	10800417 	ldw	r2,16(r2)
                         tri->vertex_x[1], tri->vertex_y[1], tri->span_array);
   833cc:	e1bffe17 	ldw	r6,-8(fp)
      tri->span_array[i*2] = -1;
      tri->span_array[(i*2) + 1] = -1;
    }
    
    // Scan-convert the triangle  
    vid_bres_scan_edges( tri->vertex_x[0], tri->vertex_y[0], 
   833d0:	31800d17 	ldw	r6,52(r6)
   833d4:	d9800015 	stw	r6,0(sp)
   833d8:	180d883a 	mov	r6,r3
   833dc:	100f883a 	mov	r7,r2
   833e0:	0082f3c0 	call	82f3c <vid_bres_scan_edges>
                         tri->vertex_x[1], tri->vertex_y[1], tri->span_array);
    vid_bres_scan_edges( tri->vertex_x[1], tri->vertex_y[1], 
   833e4:	e0bffe17 	ldw	r2,-8(fp)
   833e8:	11000117 	ldw	r4,4(r2)
   833ec:	e0bffe17 	ldw	r2,-8(fp)
   833f0:	11400417 	ldw	r5,16(r2)
                         tri->vertex_x[2], tri->vertex_y[2], tri->span_array);
   833f4:	e0bffe17 	ldw	r2,-8(fp)
    }
    
    // Scan-convert the triangle  
    vid_bres_scan_edges( tri->vertex_x[0], tri->vertex_y[0], 
                         tri->vertex_x[1], tri->vertex_y[1], tri->span_array);
    vid_bres_scan_edges( tri->vertex_x[1], tri->vertex_y[1], 
   833f8:	10c00217 	ldw	r3,8(r2)
                         tri->vertex_x[2], tri->vertex_y[2], tri->span_array);
   833fc:	e0bffe17 	ldw	r2,-8(fp)
    }
    
    // Scan-convert the triangle  
    vid_bres_scan_edges( tri->vertex_x[0], tri->vertex_y[0], 
                         tri->vertex_x[1], tri->vertex_y[1], tri->span_array);
    vid_bres_scan_edges( tri->vertex_x[1], tri->vertex_y[1], 
   83400:	10800517 	ldw	r2,20(r2)
                         tri->vertex_x[2], tri->vertex_y[2], tri->span_array);
   83404:	e1bffe17 	ldw	r6,-8(fp)
    }
    
    // Scan-convert the triangle  
    vid_bres_scan_edges( tri->vertex_x[0], tri->vertex_y[0], 
                         tri->vertex_x[1], tri->vertex_y[1], tri->span_array);
    vid_bres_scan_edges( tri->vertex_x[1], tri->vertex_y[1], 
   83408:	31800d17 	ldw	r6,52(r6)
   8340c:	d9800015 	stw	r6,0(sp)
   83410:	180d883a 	mov	r6,r3
   83414:	100f883a 	mov	r7,r2
   83418:	0082f3c0 	call	82f3c <vid_bres_scan_edges>
                         tri->vertex_x[2], tri->vertex_y[2], tri->span_array);
    vid_bres_scan_edges( tri->vertex_x[2], tri->vertex_y[2], 
   8341c:	e0bffe17 	ldw	r2,-8(fp)
   83420:	11000217 	ldw	r4,8(r2)
   83424:	e0bffe17 	ldw	r2,-8(fp)
   83428:	11400517 	ldw	r5,20(r2)
                         tri->vertex_x[0], tri->vertex_y[0], tri->span_array);
   8342c:	e0bffe17 	ldw	r2,-8(fp)
    // Scan-convert the triangle  
    vid_bres_scan_edges( tri->vertex_x[0], tri->vertex_y[0], 
                         tri->vertex_x[1], tri->vertex_y[1], tri->span_array);
    vid_bres_scan_edges( tri->vertex_x[1], tri->vertex_y[1], 
                         tri->vertex_x[2], tri->vertex_y[2], tri->span_array);
    vid_bres_scan_edges( tri->vertex_x[2], tri->vertex_y[2], 
   83430:	10c00017 	ldw	r3,0(r2)
                         tri->vertex_x[0], tri->vertex_y[0], tri->span_array);
   83434:	e0bffe17 	ldw	r2,-8(fp)
    // Scan-convert the triangle  
    vid_bres_scan_edges( tri->vertex_x[0], tri->vertex_y[0], 
                         tri->vertex_x[1], tri->vertex_y[1], tri->span_array);
    vid_bres_scan_edges( tri->vertex_x[1], tri->vertex_y[1], 
                         tri->vertex_x[2], tri->vertex_y[2], tri->span_array);
    vid_bres_scan_edges( tri->vertex_x[2], tri->vertex_y[2], 
   83438:	10800317 	ldw	r2,12(r2)
                         tri->vertex_x[0], tri->vertex_y[0], tri->span_array);
   8343c:	e1bffe17 	ldw	r6,-8(fp)
    // Scan-convert the triangle  
    vid_bres_scan_edges( tri->vertex_x[0], tri->vertex_y[0], 
                         tri->vertex_x[1], tri->vertex_y[1], tri->span_array);
    vid_bres_scan_edges( tri->vertex_x[1], tri->vertex_y[1], 
                         tri->vertex_x[2], tri->vertex_y[2], tri->span_array);
    vid_bres_scan_edges( tri->vertex_x[2], tri->vertex_y[2], 
   83440:	31800d17 	ldw	r6,52(r6)
   83444:	d9800015 	stw	r6,0(sp)
   83448:	180d883a 	mov	r6,r3
   8344c:	100f883a 	mov	r7,r2
   83450:	0082f3c0 	call	82f3c <vid_bres_scan_edges>
                         tri->vertex_x[0], tri->vertex_y[0], tri->span_array);
  
    // Render the polygon
    for( i = tri->top_y; i <= tri->bottom_y; i++ )
   83454:	e0bffe17 	ldw	r2,-8(fp)
   83458:	10800817 	ldw	r2,32(r2)
   8345c:	e0bffd15 	stw	r2,-12(fp)
   83460:	00001c06 	br	834d4 <vid_draw_triangle+0x360>
    {
//      vid_draw_horiz_line (tri->span_array[i*2], tri->span_array[(i*2)+1], i, tri->col, display);
      vid_draw_line (tri->span_array[i*2], i, tri->span_array[(i*2)+1], i, 1, tri->col, display);
   83464:	e0bffe17 	ldw	r2,-8(fp)
   83468:	10c00d17 	ldw	r3,52(r2)
   8346c:	e0bffd17 	ldw	r2,-12(fp)
   83470:	100490fa 	slli	r2,r2,3
   83474:	1885883a 	add	r2,r3,r2
   83478:	10c00017 	ldw	r3,0(r2)
   8347c:	e0bffe17 	ldw	r2,-8(fp)
   83480:	11000d17 	ldw	r4,52(r2)
   83484:	e0bffd17 	ldw	r2,-12(fp)
   83488:	100490fa 	slli	r2,r2,3
   8348c:	10800104 	addi	r2,r2,4
   83490:	2085883a 	add	r2,r4,r2
   83494:	10800017 	ldw	r2,0(r2)
   83498:	e13ffe17 	ldw	r4,-8(fp)
   8349c:	21000a17 	ldw	r4,40(r4)
   834a0:	01400044 	movi	r5,1
   834a4:	d9400015 	stw	r5,0(sp)
   834a8:	d9000115 	stw	r4,4(sp)
   834ac:	e13fff17 	ldw	r4,-4(fp)
   834b0:	d9000215 	stw	r4,8(sp)
   834b4:	1809883a 	mov	r4,r3
   834b8:	e17ffd17 	ldw	r5,-12(fp)
   834bc:	100d883a 	mov	r6,r2
   834c0:	e1fffd17 	ldw	r7,-12(fp)
   834c4:	00810d00 	call	810d0 <vid_draw_line>
                         tri->vertex_x[2], tri->vertex_y[2], tri->span_array);
    vid_bres_scan_edges( tri->vertex_x[2], tri->vertex_y[2], 
                         tri->vertex_x[0], tri->vertex_y[0], tri->span_array);
  
    // Render the polygon
    for( i = tri->top_y; i <= tri->bottom_y; i++ )
   834c8:	e0bffd17 	ldw	r2,-12(fp)
   834cc:	10800044 	addi	r2,r2,1
   834d0:	e0bffd15 	stw	r2,-12(fp)
   834d4:	e0bffe17 	ldw	r2,-8(fp)
   834d8:	10c00917 	ldw	r3,36(r2)
   834dc:	e0bffd17 	ldw	r2,-12(fp)
   834e0:	18bfe00e 	bge	r3,r2,83464 <vid_draw_triangle+0x2f0>
    {
//      vid_draw_horiz_line (tri->span_array[i*2], tri->span_array[(i*2)+1], i, tri->col, display);
      vid_draw_line (tri->span_array[i*2], i, tri->span_array[(i*2)+1], i, 1, tri->col, display);

    }
    free(tri->span_array);
   834e4:	e0bffe17 	ldw	r2,-8(fp)
   834e8:	10800d17 	ldw	r2,52(r2)
   834ec:	1009883a 	mov	r4,r2
   834f0:	00888ec0 	call	888ec <free>
  }
}
   834f4:	e037883a 	mov	sp,fp
   834f8:	dfc00117 	ldw	ra,4(sp)
   834fc:	df000017 	ldw	fp,0(sp)
   83500:	dec00204 	addi	sp,sp,8
   83504:	f800283a 	ret

00083508 <CopyImage16>:

void CopyImage16( short * __restrict__ source_buffer, 
                  short * __restrict__ dest_buffer, 
                  short source_width, short source_height,
                  short dest_width, short dest_height )
{
   83508:	defff404 	addi	sp,sp,-48
   8350c:	dfc00b15 	stw	ra,44(sp)
   83510:	df000a15 	stw	fp,40(sp)
   83514:	df000a04 	addi	fp,sp,40
   83518:	e13ffa15 	stw	r4,-24(fp)
   8351c:	e17ffb15 	stw	r5,-20(fp)
   83520:	3007883a 	mov	r3,r6
   83524:	3805883a 	mov	r2,r7
   83528:	e1400217 	ldw	r5,8(fp)
   8352c:	e1000317 	ldw	r4,12(fp)
   83530:	e0fffc0d 	sth	r3,-16(fp)
   83534:	e0bffd0d 	sth	r2,-12(fp)
   83538:	e17ffe0d 	sth	r5,-8(fp)
   8353c:	e13fff0d 	sth	r4,-4(fp)
  int y_src, y_dst;
  int y_src_offset = 0;
   83540:	e03ff815 	stw	zero,-32(fp)
  int y_dst_offset = 0;
   83544:	e03ff915 	stw	zero,-28(fp)
  
  for( y_src = 0, y_dst = 0; 
   83548:	e03ff615 	stw	zero,-40(fp)
   8354c:	e03ff715 	stw	zero,-36(fp)
   83550:	00001b06 	br	835c0 <CopyImage16+0xb8>
       y_src <= ( source_height  - 1 ); 
       y_src++, y_dst++, y_src_offset += source_width, y_dst_offset += dest_width )
  {
    memcpy(( dest_buffer + y_dst_offset ), 
   83554:	e0bff917 	ldw	r2,-28(fp)
   83558:	1085883a 	add	r2,r2,r2
   8355c:	e0fffb17 	ldw	r3,-20(fp)
   83560:	1889883a 	add	r4,r3,r2
   83564:	e0bff817 	ldw	r2,-32(fp)
           ( source_buffer + y_src_offset ), 
   83568:	1085883a 	add	r2,r2,r2
  
  for( y_src = 0, y_dst = 0; 
       y_src <= ( source_height  - 1 ); 
       y_src++, y_dst++, y_src_offset += source_width, y_dst_offset += dest_width )
  {
    memcpy(( dest_buffer + y_dst_offset ), 
   8356c:	e0fffa17 	ldw	r3,-24(fp)
   83570:	1887883a 	add	r3,r3,r2
           ( source_buffer + y_src_offset ), 
           ( source_width << 1 ));
   83574:	e0bffc0f 	ldh	r2,-16(fp)
   83578:	1085883a 	add	r2,r2,r2
  
  for( y_src = 0, y_dst = 0; 
       y_src <= ( source_height  - 1 ); 
       y_src++, y_dst++, y_src_offset += source_width, y_dst_offset += dest_width )
  {
    memcpy(( dest_buffer + y_dst_offset ), 
   8357c:	180b883a 	mov	r5,r3
   83580:	100d883a 	mov	r6,r2
   83584:	00890840 	call	89084 <memcpy>
  int y_src_offset = 0;
  int y_dst_offset = 0;
  
  for( y_src = 0, y_dst = 0; 
       y_src <= ( source_height  - 1 ); 
       y_src++, y_dst++, y_src_offset += source_width, y_dst_offset += dest_width )
   83588:	e0bff617 	ldw	r2,-40(fp)
   8358c:	10800044 	addi	r2,r2,1
   83590:	e0bff615 	stw	r2,-40(fp)
   83594:	e0bff717 	ldw	r2,-36(fp)
   83598:	10800044 	addi	r2,r2,1
   8359c:	e0bff715 	stw	r2,-36(fp)
   835a0:	e0bffc0f 	ldh	r2,-16(fp)
   835a4:	e0fff817 	ldw	r3,-32(fp)
   835a8:	1885883a 	add	r2,r3,r2
   835ac:	e0bff815 	stw	r2,-32(fp)
   835b0:	e0bffe0f 	ldh	r2,-8(fp)
   835b4:	e0fff917 	ldw	r3,-28(fp)
   835b8:	1885883a 	add	r2,r3,r2
   835bc:	e0bff915 	stw	r2,-28(fp)
  int y_src, y_dst;
  int y_src_offset = 0;
  int y_dst_offset = 0;
  
  for( y_src = 0, y_dst = 0; 
       y_src <= ( source_height  - 1 ); 
   835c0:	e0bffd0f 	ldh	r2,-12(fp)
   835c4:	10ffffc4 	addi	r3,r2,-1
{
  int y_src, y_dst;
  int y_src_offset = 0;
  int y_dst_offset = 0;
  
  for( y_src = 0, y_dst = 0; 
   835c8:	e0bff617 	ldw	r2,-40(fp)
   835cc:	18bfe10e 	bge	r3,r2,83554 <CopyImage16+0x4c>
  {
    memcpy(( dest_buffer + y_dst_offset ), 
           ( source_buffer + y_src_offset ), 
           ( source_width << 1 ));
  }
}
   835d0:	e037883a 	mov	sp,fp
   835d4:	dfc00117 	ldw	ra,4(sp)
   835d8:	df000017 	ldw	fp,0(sp)
   835dc:	dec00204 	addi	sp,sp,8
   835e0:	f800283a 	ret

000835e4 <CropImage16>:
                  short * __restrict__ dest_buffer, 
                  short source_width, short source_height,
                  short crop_left, short crop_right,
                  short crop_top, short crop_bottom,
                  short dest_width, short dest_height )
{
   835e4:	defff004 	addi	sp,sp,-64
   835e8:	dfc00f15 	stw	ra,60(sp)
   835ec:	df000e15 	stw	fp,56(sp)
   835f0:	df000e04 	addi	fp,sp,56
   835f4:	e13ff615 	stw	r4,-40(fp)
   835f8:	e17ff715 	stw	r5,-36(fp)
   835fc:	3007883a 	mov	r3,r6
   83600:	3805883a 	mov	r2,r7
   83604:	e2400217 	ldw	r9,8(fp)
   83608:	e2000317 	ldw	r8,12(fp)
   8360c:	e1c00417 	ldw	r7,16(fp)
   83610:	e1800517 	ldw	r6,20(fp)
   83614:	e1400617 	ldw	r5,24(fp)
   83618:	e1000717 	ldw	r4,28(fp)
   8361c:	e0fff80d 	sth	r3,-32(fp)
   83620:	e0bff90d 	sth	r2,-28(fp)
   83624:	e27ffa0d 	sth	r9,-24(fp)
   83628:	e23ffb0d 	sth	r8,-20(fp)
   8362c:	e1fffc0d 	sth	r7,-16(fp)
   83630:	e1bffd0d 	sth	r6,-12(fp)
   83634:	e17ffe0d 	sth	r5,-8(fp)
   83638:	e13fff0d 	sth	r4,-4(fp)
  int y_src, y_dst;
  int y_src_offset = (source_width * crop_top);
   8363c:	e0fff80f 	ldh	r3,-32(fp)
   83640:	e0bffc0f 	ldh	r2,-16(fp)
   83644:	1885383a 	mul	r2,r3,r2
   83648:	e0bff415 	stw	r2,-48(fp)
  int y_dst_offset = 0;
   8364c:	e03ff515 	stw	zero,-44(fp)
  
  for( y_src = crop_top, y_dst = 0; 
   83650:	e0bffc0f 	ldh	r2,-16(fp)
   83654:	e0bff215 	stw	r2,-56(fp)
   83658:	e03ff315 	stw	zero,-52(fp)
   8365c:	00002106 	br	836e4 <CropImage16+0x100>
       y_src <= ( source_height - crop_bottom - 1 ); 
       y_src++, y_dst++, y_src_offset += source_width, y_dst_offset += dest_width )
  {
    memcpy(( dest_buffer + y_dst_offset ), 
   83660:	e0bff517 	ldw	r2,-44(fp)
   83664:	1085883a 	add	r2,r2,r2
   83668:	e0fff717 	ldw	r3,-36(fp)
   8366c:	1889883a 	add	r4,r3,r2
           ( source_buffer + y_src_offset + crop_left ), 
   83670:	e0fffa0f 	ldh	r3,-24(fp)
   83674:	e0bff417 	ldw	r2,-48(fp)
   83678:	1885883a 	add	r2,r3,r2
   8367c:	1085883a 	add	r2,r2,r2
   83680:	e0fff617 	ldw	r3,-40(fp)
   83684:	1887883a 	add	r3,r3,r2
           ((source_width - crop_left - crop_right) << 1));
   83688:	e17ff80f 	ldh	r5,-32(fp)
   8368c:	e0bffa0f 	ldh	r2,-24(fp)
   83690:	288bc83a 	sub	r5,r5,r2
   83694:	e0bffb0f 	ldh	r2,-20(fp)
   83698:	2885c83a 	sub	r2,r5,r2
   8369c:	1085883a 	add	r2,r2,r2
  
  for( y_src = crop_top, y_dst = 0; 
       y_src <= ( source_height - crop_bottom - 1 ); 
       y_src++, y_dst++, y_src_offset += source_width, y_dst_offset += dest_width )
  {
    memcpy(( dest_buffer + y_dst_offset ), 
   836a0:	180b883a 	mov	r5,r3
   836a4:	100d883a 	mov	r6,r2
   836a8:	00890840 	call	89084 <memcpy>
  int y_src_offset = (source_width * crop_top);
  int y_dst_offset = 0;
  
  for( y_src = crop_top, y_dst = 0; 
       y_src <= ( source_height - crop_bottom - 1 ); 
       y_src++, y_dst++, y_src_offset += source_width, y_dst_offset += dest_width )
   836ac:	e0bff217 	ldw	r2,-56(fp)
   836b0:	10800044 	addi	r2,r2,1
   836b4:	e0bff215 	stw	r2,-56(fp)
   836b8:	e0bff317 	ldw	r2,-52(fp)
   836bc:	10800044 	addi	r2,r2,1
   836c0:	e0bff315 	stw	r2,-52(fp)
   836c4:	e0bff80f 	ldh	r2,-32(fp)
   836c8:	e0fff417 	ldw	r3,-48(fp)
   836cc:	1885883a 	add	r2,r3,r2
   836d0:	e0bff415 	stw	r2,-48(fp)
   836d4:	e0bffe0f 	ldh	r2,-8(fp)
   836d8:	e0fff517 	ldw	r3,-44(fp)
   836dc:	1885883a 	add	r2,r3,r2
   836e0:	e0bff515 	stw	r2,-44(fp)
  int y_src, y_dst;
  int y_src_offset = (source_width * crop_top);
  int y_dst_offset = 0;
  
  for( y_src = crop_top, y_dst = 0; 
       y_src <= ( source_height - crop_bottom - 1 ); 
   836e4:	e0fff90f 	ldh	r3,-28(fp)
   836e8:	e0bffd0f 	ldh	r2,-12(fp)
   836ec:	1885c83a 	sub	r2,r3,r2
   836f0:	10ffffc4 	addi	r3,r2,-1
{
  int y_src, y_dst;
  int y_src_offset = (source_width * crop_top);
  int y_dst_offset = 0;
  
  for( y_src = crop_top, y_dst = 0; 
   836f4:	e0bff217 	ldw	r2,-56(fp)
   836f8:	18bfd90e 	bge	r3,r2,83660 <CropImage16+0x7c>
  {
    memcpy(( dest_buffer + y_dst_offset ), 
           ( source_buffer + y_src_offset + crop_left ), 
           ((source_width - crop_left - crop_right) << 1));
  }
}
   836fc:	e037883a 	mov	sp,fp
   83700:	dfc00117 	ldw	ra,4(sp)
   83704:	df000017 	ldw	fp,0(sp)
   83708:	dec00204 	addi	sp,sp,8
   8370c:	f800283a 	ret

00083710 <vid_print_string_alpha>:
*           24 bit - R(8):G(8):B(8)  (packed)
*           32 bit - 0 : R(8):G(8):B(8) (unpacked)
******************************************************************/

int vid_print_string_alpha(int horiz_offset, int vert_offset, int color, int background_color, struct abc_font_struct font[], alt_video_display * display, char string[])
{
   83710:	defff404 	addi	sp,sp,-48
   83714:	dfc00b15 	stw	ra,44(sp)
   83718:	df000a15 	stw	fp,40(sp)
   8371c:	df000a04 	addi	fp,sp,40
   83720:	e13ffc15 	stw	r4,-16(fp)
   83724:	e17ffd15 	stw	r5,-12(fp)
   83728:	e1bffe15 	stw	r6,-8(fp)
   8372c:	e1ffff15 	stw	r7,-4(fp)
  int i = 0;
   83730:	e03ff915 	stw	zero,-28(fp)
  int tab;
  int original_horiz_offset;

  original_horiz_offset = horiz_offset;
   83734:	e0bffc17 	ldw	r2,-16(fp)
   83738:	e0bffb15 	stw	r2,-20(fp)

  // Print until we hit the '\0' char.
  while (string[i]) {
   8373c:	00007d06 	br	83934 <vid_print_string_alpha+0x224>
    //Handle newline char here.
    if (string[i] == '\n') {
   83740:	e0bff917 	ldw	r2,-28(fp)
   83744:	e0c00417 	ldw	r3,16(fp)
   83748:	1885883a 	add	r2,r3,r2
   8374c:	10800003 	ldbu	r2,0(r2)
   83750:	10803fcc 	andi	r2,r2,255
   83754:	1080201c 	xori	r2,r2,128
   83758:	10bfe004 	addi	r2,r2,-128
   8375c:	10800298 	cmpnei	r2,r2,10
   83760:	10000c1e 	bne	r2,zero,83794 <vid_print_string_alpha+0x84>
      horiz_offset = original_horiz_offset;
   83764:	e0bffb17 	ldw	r2,-20(fp)
   83768:	e0bffc15 	stw	r2,-16(fp)
      vert_offset += font['|' - 33].bounds_height;  // we'll use "|" to add the line to line spacing
   8376c:	e0800217 	ldw	r2,8(fp)
   83770:	1082d804 	addi	r2,r2,2912
   83774:	10c00517 	ldw	r3,20(r2)
   83778:	e0bffd17 	ldw	r2,-12(fp)
   8377c:	1885883a 	add	r2,r3,r2
   83780:	e0bffd15 	stw	r2,-12(fp)
      i++;
   83784:	e0bff917 	ldw	r2,-28(fp)
   83788:	10800044 	addi	r2,r2,1
   8378c:	e0bff915 	stw	r2,-28(fp)
      continue;
   83790:	00006806 	br	83934 <vid_print_string_alpha+0x224>
    }
    // Lay down that character and increment our offsets.
    if(string[i] == 32)  // this is a space in ASCII
   83794:	e0bff917 	ldw	r2,-28(fp)
   83798:	e0c00417 	ldw	r3,16(fp)
   8379c:	1885883a 	add	r2,r3,r2
   837a0:	10800003 	ldbu	r2,0(r2)
   837a4:	10803fcc 	andi	r2,r2,255
   837a8:	1080201c 	xori	r2,r2,128
   837ac:	10bfe004 	addi	r2,r2,-128
   837b0:	10800818 	cmpnei	r2,r2,32
   837b4:	1000151e 	bne	r2,zero,8380c <vid_print_string_alpha+0xfc>
    {
      if(background_color != CLEAR_BACKGROUND)  // need to fill in this spot (setting foreground to background color so that it looks like a drawn in box)
   837b8:	e0bfff17 	ldw	r2,-4(fp)
   837bc:	10bfffe0 	cmpeqi	r2,r2,-1
   837c0:	10000b1e 	bne	r2,zero,837f0 <vid_print_string_alpha+0xe0>
      {
        vid_print_char_alpha (horiz_offset, vert_offset, background_color, '-', background_color, font, display);
   837c4:	e0bfff17 	ldw	r2,-4(fp)
   837c8:	d8800015 	stw	r2,0(sp)
   837cc:	e0800217 	ldw	r2,8(fp)
   837d0:	d8800115 	stw	r2,4(sp)
   837d4:	e0800317 	ldw	r2,12(fp)
   837d8:	d8800215 	stw	r2,8(sp)
   837dc:	e13ffc17 	ldw	r4,-16(fp)
   837e0:	e17ffd17 	ldw	r5,-12(fp)
   837e4:	e1bfff17 	ldw	r6,-4(fp)
   837e8:	01c00b44 	movi	r7,45
   837ec:	0083e9c0 	call	83e9c <vid_print_char_alpha>
      }
      horiz_offset += font[45 - 33].bounds_width;  // using the width of the '-' character for the space width since it's not present in the font
   837f0:	e0800217 	ldw	r2,8(fp)
   837f4:	10806004 	addi	r2,r2,384
   837f8:	10c00417 	ldw	r3,16(r2)
   837fc:	e0bffc17 	ldw	r2,-16(fp)
   83800:	1885883a 	add	r2,r3,r2
   83804:	e0bffc15 	stw	r2,-16(fp)
   83808:	00004706 	br	83928 <vid_print_string_alpha+0x218>
    }
    else if(string[i] == '\t')  // this is a tab
   8380c:	e0bff917 	ldw	r2,-28(fp)
   83810:	e0c00417 	ldw	r3,16(fp)
   83814:	1885883a 	add	r2,r3,r2
   83818:	10800003 	ldbu	r2,0(r2)
   8381c:	10803fcc 	andi	r2,r2,255
   83820:	1080201c 	xori	r2,r2,128
   83824:	10bfe004 	addi	r2,r2,-128
   83828:	10800258 	cmpnei	r2,r2,9
   8382c:	10001d1e 	bne	r2,zero,838a4 <vid_print_string_alpha+0x194>
    {
      for( tab = 0; tab < TAB_SPACING; tab++ )
   83830:	e03ffa15 	stw	zero,-24(fp)
   83834:	00001706 	br	83894 <vid_print_string_alpha+0x184>
      {
        if(background_color != CLEAR_BACKGROUND)  // need to fill in this spot (setting foreground to background color so that it looks like a drawn in box)
   83838:	e0bfff17 	ldw	r2,-4(fp)
   8383c:	10bfffe0 	cmpeqi	r2,r2,-1
   83840:	10000b1e 	bne	r2,zero,83870 <vid_print_string_alpha+0x160>
        {
          vid_print_char_alpha (horiz_offset, vert_offset, background_color, '-', background_color, font, display);
   83844:	e0bfff17 	ldw	r2,-4(fp)
   83848:	d8800015 	stw	r2,0(sp)
   8384c:	e0800217 	ldw	r2,8(fp)
   83850:	d8800115 	stw	r2,4(sp)
   83854:	e0800317 	ldw	r2,12(fp)
   83858:	d8800215 	stw	r2,8(sp)
   8385c:	e13ffc17 	ldw	r4,-16(fp)
   83860:	e17ffd17 	ldw	r5,-12(fp)
   83864:	e1bfff17 	ldw	r6,-4(fp)
   83868:	01c00b44 	movi	r7,45
   8386c:	0083e9c0 	call	83e9c <vid_print_char_alpha>
        }
        horiz_offset += font[45 - 33].bounds_width;  // using the width of the '-' character for the space width since it's not present in the font
   83870:	e0800217 	ldw	r2,8(fp)
   83874:	10806004 	addi	r2,r2,384
   83878:	10c00417 	ldw	r3,16(r2)
   8387c:	e0bffc17 	ldw	r2,-16(fp)
   83880:	1885883a 	add	r2,r3,r2
   83884:	e0bffc15 	stw	r2,-16(fp)
      }
      horiz_offset += font[45 - 33].bounds_width;  // using the width of the '-' character for the space width since it's not present in the font
    }
    else if(string[i] == '\t')  // this is a tab
    {
      for( tab = 0; tab < TAB_SPACING; tab++ )
   83888:	e0bffa17 	ldw	r2,-24(fp)
   8388c:	10800044 	addi	r2,r2,1
   83890:	e0bffa15 	stw	r2,-24(fp)
   83894:	e0bffa17 	ldw	r2,-24(fp)
   83898:	10800090 	cmplti	r2,r2,2
   8389c:	103fe61e 	bne	r2,zero,83838 <vid_print_string_alpha+0x128>
   838a0:	00002106 	br	83928 <vid_print_string_alpha+0x218>
        horiz_offset += font[45 - 33].bounds_width;  // using the width of the '-' character for the space width since it's not present in the font
      }
    }
    else
    {
      vid_print_char_alpha (horiz_offset, vert_offset, color, string[i], background_color, font, display);
   838a4:	e0bff917 	ldw	r2,-28(fp)
   838a8:	e0c00417 	ldw	r3,16(fp)
   838ac:	1885883a 	add	r2,r3,r2
   838b0:	10800003 	ldbu	r2,0(r2)
   838b4:	10803fcc 	andi	r2,r2,255
   838b8:	1080201c 	xori	r2,r2,128
   838bc:	10bfe004 	addi	r2,r2,-128
   838c0:	e0ffff17 	ldw	r3,-4(fp)
   838c4:	d8c00015 	stw	r3,0(sp)
   838c8:	e0c00217 	ldw	r3,8(fp)
   838cc:	d8c00115 	stw	r3,4(sp)
   838d0:	e0c00317 	ldw	r3,12(fp)
   838d4:	d8c00215 	stw	r3,8(sp)
   838d8:	e13ffc17 	ldw	r4,-16(fp)
   838dc:	e17ffd17 	ldw	r5,-12(fp)
   838e0:	e1bffe17 	ldw	r6,-8(fp)
   838e4:	100f883a 	mov	r7,r2
   838e8:	0083e9c0 	call	83e9c <vid_print_char_alpha>
      horiz_offset += font[string[i] - 33].bounds_width;
   838ec:	e0bff917 	ldw	r2,-28(fp)
   838f0:	e0c00417 	ldw	r3,16(fp)
   838f4:	1885883a 	add	r2,r3,r2
   838f8:	10800003 	ldbu	r2,0(r2)
   838fc:	10803fcc 	andi	r2,r2,255
   83900:	1080201c 	xori	r2,r2,128
   83904:	10bfe004 	addi	r2,r2,-128
   83908:	10bff7c4 	addi	r2,r2,-33
   8390c:	1004917a 	slli	r2,r2,5
   83910:	e0c00217 	ldw	r3,8(fp)
   83914:	1885883a 	add	r2,r3,r2
   83918:	10c00417 	ldw	r3,16(r2)
   8391c:	e0bffc17 	ldw	r2,-16(fp)
   83920:	1885883a 	add	r2,r3,r2
   83924:	e0bffc15 	stw	r2,-16(fp)
    }
    i++;
   83928:	e0bff917 	ldw	r2,-28(fp)
   8392c:	10800044 	addi	r2,r2,1
   83930:	e0bff915 	stw	r2,-28(fp)
  int original_horiz_offset;

  original_horiz_offset = horiz_offset;

  // Print until we hit the '\0' char.
  while (string[i]) {
   83934:	e0bff917 	ldw	r2,-28(fp)
   83938:	e0c00417 	ldw	r3,16(fp)
   8393c:	1885883a 	add	r2,r3,r2
   83940:	10800003 	ldbu	r2,0(r2)
   83944:	10803fcc 	andi	r2,r2,255
   83948:	1080201c 	xori	r2,r2,128
   8394c:	10bfe004 	addi	r2,r2,-128
   83950:	103f7b1e 	bne	r2,zero,83740 <vid_print_string_alpha+0x30>
      vid_print_char_alpha (horiz_offset, vert_offset, color, string[i], background_color, font, display);
      horiz_offset += font[string[i] - 33].bounds_width;
    }
    i++;
  }
  return (0);
   83954:	0005883a 	mov	r2,zero
}
   83958:	e037883a 	mov	sp,fp
   8395c:	dfc00117 	ldw	ra,4(sp)
   83960:	df000017 	ldw	fp,0(sp)
   83964:	dec00204 	addi	sp,sp,8
   83968:	f800283a 	ret

0008396c <seperate_color_channels>:
*           the function working on pointers.
*
******************************************************************/

__inline__ int seperate_color_channels(int color_depth, unsigned char * color, unsigned char * red, unsigned char * green, unsigned char * blue)
{
   8396c:	defff904 	addi	sp,sp,-28
   83970:	df000615 	stw	fp,24(sp)
   83974:	df000604 	addi	fp,sp,24
   83978:	e13ffc15 	stw	r4,-16(fp)
   8397c:	e17ffd15 	stw	r5,-12(fp)
   83980:	e1bffe15 	stw	r6,-8(fp)
   83984:	e1ffff15 	stw	r7,-4(fp)
  int return_value;  // error checking in case anyone is listening
  unsigned short temp_color = 0;
   83988:	e03ffb0d 	sth	zero,-20(fp)
  
  if (color_depth == 16)  // R(5):G(6):B(5)
   8398c:	e0bffc17 	ldw	r2,-16(fp)
   83990:	10800418 	cmpnei	r2,r2,16
   83994:	1000231e 	bne	r2,zero,83a24 <seperate_color_channels+0xb8>
  {
    temp_color = *color++;        // get the first half of the 16 bit color
   83998:	e0bffd17 	ldw	r2,-12(fp)
   8399c:	10800003 	ldbu	r2,0(r2)
   839a0:	10803fcc 	andi	r2,r2,255
   839a4:	e0bffb0d 	sth	r2,-20(fp)
   839a8:	e0bffd17 	ldw	r2,-12(fp)
   839ac:	10800044 	addi	r2,r2,1
   839b0:	e0bffd15 	stw	r2,-12(fp)
    temp_color += (*color << 8);  // get the second half of the 16 bit color
   839b4:	e0bffd17 	ldw	r2,-12(fp)
   839b8:	10800003 	ldbu	r2,0(r2)
   839bc:	10803fcc 	andi	r2,r2,255
   839c0:	1004923a 	slli	r2,r2,8
   839c4:	1007883a 	mov	r3,r2
   839c8:	e0bffb0b 	ldhu	r2,-20(fp)
   839cc:	1885883a 	add	r2,r3,r2
   839d0:	e0bffb0d 	sth	r2,-20(fp)
    *blue = temp_color & 0x1F; 
   839d4:	e0bffb0b 	ldhu	r2,-20(fp)
   839d8:	108007cc 	andi	r2,r2,31
   839dc:	1007883a 	mov	r3,r2
   839e0:	e0800117 	ldw	r2,4(fp)
   839e4:	10c00005 	stb	r3,0(r2)
    *green = (temp_color >> 5) & 0x3F;
   839e8:	e0bffb0b 	ldhu	r2,-20(fp)
   839ec:	1004d17a 	srli	r2,r2,5
   839f0:	10800fcc 	andi	r2,r2,63
   839f4:	1007883a 	mov	r3,r2
   839f8:	e0bfff17 	ldw	r2,-4(fp)
   839fc:	10c00005 	stb	r3,0(r2)
    *red = (temp_color >> 11) & 0x1F;
   83a00:	e0bffb0b 	ldhu	r2,-20(fp)
   83a04:	1004d2fa 	srli	r2,r2,11
   83a08:	108007cc 	andi	r2,r2,31
   83a0c:	1007883a 	mov	r3,r2
   83a10:	e0bffe17 	ldw	r2,-8(fp)
   83a14:	10c00005 	stb	r3,0(r2)
    return_value = 1;
   83a18:	00800044 	movi	r2,1
   83a1c:	e0bffa15 	stw	r2,-24(fp)
   83a20:	00002206 	br	83aac <seperate_color_channels+0x140>
  }
  else if ((color_depth == 24) || (color_depth == 32))  // R(8):G(8):B(8) packed/unpacked
   83a24:	e0bffc17 	ldw	r2,-16(fp)
   83a28:	10800620 	cmpeqi	r2,r2,24
   83a2c:	1000031e 	bne	r2,zero,83a3c <seperate_color_channels+0xd0>
   83a30:	e0bffc17 	ldw	r2,-16(fp)
   83a34:	10800818 	cmpnei	r2,r2,32
   83a38:	1000151e 	bne	r2,zero,83a90 <seperate_color_channels+0x124>
  {
    *blue = *color++;
   83a3c:	e0bffd17 	ldw	r2,-12(fp)
   83a40:	10c00003 	ldbu	r3,0(r2)
   83a44:	e0800117 	ldw	r2,4(fp)
   83a48:	10c00005 	stb	r3,0(r2)
   83a4c:	e0bffd17 	ldw	r2,-12(fp)
   83a50:	10800044 	addi	r2,r2,1
   83a54:	e0bffd15 	stw	r2,-12(fp)
    *green = *color++;
   83a58:	e0bffd17 	ldw	r2,-12(fp)
   83a5c:	10c00003 	ldbu	r3,0(r2)
   83a60:	e0bfff17 	ldw	r2,-4(fp)
   83a64:	10c00005 	stb	r3,0(r2)
   83a68:	e0bffd17 	ldw	r2,-12(fp)
   83a6c:	10800044 	addi	r2,r2,1
   83a70:	e0bffd15 	stw	r2,-12(fp)
    *red = *color;   
   83a74:	e0bffd17 	ldw	r2,-12(fp)
   83a78:	10c00003 	ldbu	r3,0(r2)
   83a7c:	e0bffe17 	ldw	r2,-8(fp)
   83a80:	10c00005 	stb	r3,0(r2)
    return_value = 1;
   83a84:	00800044 	movi	r2,1
   83a88:	e0bffa15 	stw	r2,-24(fp)
   83a8c:	00000706 	br	83aac <seperate_color_channels+0x140>
  }
  else  // not a valid color depth for this function
  {
    *red = 0;
   83a90:	e0bffe17 	ldw	r2,-8(fp)
   83a94:	10000005 	stb	zero,0(r2)
    *green = 0;
   83a98:	e0bfff17 	ldw	r2,-4(fp)
   83a9c:	10000005 	stb	zero,0(r2)
    *blue = 0;    
   83aa0:	e0800117 	ldw	r2,4(fp)
   83aa4:	10000005 	stb	zero,0(r2)
    return_value = 0;    
   83aa8:	e03ffa15 	stw	zero,-24(fp)
  }
  return return_value;
   83aac:	e0bffa17 	ldw	r2,-24(fp)
}
   83ab0:	e037883a 	mov	sp,fp
   83ab4:	df000017 	ldw	fp,0(sp)
   83ab8:	dec00104 	addi	sp,sp,4
   83abc:	f800283a 	ret

00083ac0 <merge_color_channels>:
*           different color formats and packing.
*
******************************************************************/

__inline__ int merge_color_channels(int color_depth, unsigned char red, unsigned char green, unsigned char blue, unsigned char * color)
{
   83ac0:	defff904 	addi	sp,sp,-28
   83ac4:	df000615 	stw	fp,24(sp)
   83ac8:	df000604 	addi	fp,sp,24
   83acc:	e13ffc15 	stw	r4,-16(fp)
   83ad0:	2809883a 	mov	r4,r5
   83ad4:	3007883a 	mov	r3,r6
   83ad8:	3805883a 	mov	r2,r7
   83adc:	e13ffd05 	stb	r4,-12(fp)
   83ae0:	e0fffe05 	stb	r3,-8(fp)
   83ae4:	e0bfff05 	stb	r2,-4(fp)
  int return_value;  // error checking in case anyone is listening
  unsigned short temp_color;
    
  if (color_depth == 16)  // R(5):G(6):B(5)
   83ae8:	e0bffc17 	ldw	r2,-16(fp)
   83aec:	10800418 	cmpnei	r2,r2,16
   83af0:	10001b1e 	bne	r2,zero,83b60 <merge_color_channels+0xa0>
  {
    temp_color = (blue & 0x1F) | ((green & 0x3F) << 5) | ((red & 0x1F) << 11);  // 16 bit color format
   83af4:	e0bfff03 	ldbu	r2,-4(fp)
   83af8:	108007cc 	andi	r2,r2,31
   83afc:	1007883a 	mov	r3,r2
   83b00:	e0bffe03 	ldbu	r2,-8(fp)
   83b04:	10800fcc 	andi	r2,r2,63
   83b08:	1004917a 	slli	r2,r2,5
   83b0c:	1884b03a 	or	r2,r3,r2
   83b10:	1007883a 	mov	r3,r2
   83b14:	e0bffd03 	ldbu	r2,-12(fp)
   83b18:	100492fa 	slli	r2,r2,11
   83b1c:	1884b03a 	or	r2,r3,r2
   83b20:	e0bffb0d 	sth	r2,-20(fp)
    *color++ = temp_color & 0xFF;
   83b24:	e0bffb0b 	ldhu	r2,-20(fp)
   83b28:	1007883a 	mov	r3,r2
   83b2c:	e0800117 	ldw	r2,4(fp)
   83b30:	10c00005 	stb	r3,0(r2)
   83b34:	e0800117 	ldw	r2,4(fp)
   83b38:	10800044 	addi	r2,r2,1
   83b3c:	e0800115 	stw	r2,4(fp)
    *color = (temp_color >> 8) & 0xFF;
   83b40:	e0bffb0b 	ldhu	r2,-20(fp)
   83b44:	1004d23a 	srli	r2,r2,8
   83b48:	1007883a 	mov	r3,r2
   83b4c:	e0800117 	ldw	r2,4(fp)
   83b50:	10c00005 	stb	r3,0(r2)
    return_value = 1;
   83b54:	00800044 	movi	r2,1
   83b58:	e0bffa15 	stw	r2,-24(fp)
   83b5c:	00002506 	br	83bf4 <merge_color_channels+0x134>
  }
  else if ((color_depth == 24) || (color_depth == 32))  // R(8):G(8):B(8) packed/unpacked
   83b60:	e0bffc17 	ldw	r2,-16(fp)
   83b64:	10800620 	cmpeqi	r2,r2,24
   83b68:	1000031e 	bne	r2,zero,83b78 <merge_color_channels+0xb8>
   83b6c:	e0bffc17 	ldw	r2,-16(fp)
   83b70:	10800818 	cmpnei	r2,r2,32
   83b74:	1000121e 	bne	r2,zero,83bc0 <merge_color_channels+0x100>
  {
    *color++ = blue;
   83b78:	e0800117 	ldw	r2,4(fp)
   83b7c:	e0ffff03 	ldbu	r3,-4(fp)
   83b80:	10c00005 	stb	r3,0(r2)
   83b84:	e0800117 	ldw	r2,4(fp)
   83b88:	10800044 	addi	r2,r2,1
   83b8c:	e0800115 	stw	r2,4(fp)
    *color++ = green;
   83b90:	e0800117 	ldw	r2,4(fp)
   83b94:	e0fffe03 	ldbu	r3,-8(fp)
   83b98:	10c00005 	stb	r3,0(r2)
   83b9c:	e0800117 	ldw	r2,4(fp)
   83ba0:	10800044 	addi	r2,r2,1
   83ba4:	e0800115 	stw	r2,4(fp)
    *color = red;
   83ba8:	e0800117 	ldw	r2,4(fp)
   83bac:	e0fffd03 	ldbu	r3,-12(fp)
   83bb0:	10c00005 	stb	r3,0(r2)
    return_value = 1;
   83bb4:	00800044 	movi	r2,1
   83bb8:	e0bffa15 	stw	r2,-24(fp)
   83bbc:	00000d06 	br	83bf4 <merge_color_channels+0x134>
  }
  else  // not a valid color depth for this function
  {
    *color++ = 0;
   83bc0:	e0800117 	ldw	r2,4(fp)
   83bc4:	10000005 	stb	zero,0(r2)
   83bc8:	e0800117 	ldw	r2,4(fp)
   83bcc:	10800044 	addi	r2,r2,1
   83bd0:	e0800115 	stw	r2,4(fp)
    *color++ = 0;
   83bd4:	e0800117 	ldw	r2,4(fp)
   83bd8:	10000005 	stb	zero,0(r2)
   83bdc:	e0800117 	ldw	r2,4(fp)
   83be0:	10800044 	addi	r2,r2,1
   83be4:	e0800115 	stw	r2,4(fp)
    *color = 0;
   83be8:	e0800117 	ldw	r2,4(fp)
   83bec:	10000005 	stb	zero,0(r2)
    return_value = 0;    
   83bf0:	e03ffa15 	stw	zero,-24(fp)
  }
  return return_value;  
   83bf4:	e0bffa17 	ldw	r2,-24(fp)
}
   83bf8:	e037883a 	mov	sp,fp
   83bfc:	df000017 	ldw	fp,0(sp)
   83c00:	dec00104 	addi	sp,sp,4
   83c04:	f800283a 	ret

00083c08 <read_from_frame>:
*           needed to calculate the new one.
*
******************************************************************/

__inline__ int read_from_frame (int horiz, int vert, unsigned char *red, unsigned char *green, unsigned char *blue, alt_video_display * display)
{
   83c08:	defffa04 	addi	sp,sp,-24
   83c0c:	dfc00515 	stw	ra,20(sp)
   83c10:	df000415 	stw	fp,16(sp)
   83c14:	df000404 	addi	fp,sp,16
   83c18:	e13ffc15 	stw	r4,-16(fp)
   83c1c:	e17ffd15 	stw	r5,-12(fp)
   83c20:	e1bffe15 	stw	r6,-8(fp)
   83c24:	e1ffff15 	stw	r7,-4(fp)
#ifdef LT24
	printf("read_from_frame is not implemented!\r\n");
   83c28:	010002f4 	movhi	r4,11
   83c2c:	21355c04 	addi	r4,r4,-10896
   83c30:	00893440 	call	89344 <puts>
    return_value = 0; 
  }

  return return_value;
#endif
}
   83c34:	e037883a 	mov	sp,fp
   83c38:	dfc00117 	ldw	ra,4(sp)
   83c3c:	df000017 	ldw	fp,0(sp)
   83c40:	dec00204 	addi	sp,sp,8
   83c44:	f800283a 	ret

00083c48 <alpha_blending>:
*           the font color with the background color.
*
******************************************************************/

__inline__ int alpha_blending (int horiz_offset, int vert_offset, int background_color, unsigned char alpha, unsigned char *red, unsigned char *green, unsigned char *blue, alt_video_display * display)
{
   83c48:	defff304 	addi	sp,sp,-52
   83c4c:	dfc00c15 	stw	ra,48(sp)
   83c50:	df000b15 	stw	fp,44(sp)
   83c54:	df000b04 	addi	fp,sp,44
   83c58:	e13ffc15 	stw	r4,-16(fp)
   83c5c:	e17ffd15 	stw	r5,-12(fp)
   83c60:	e1bffe15 	stw	r6,-8(fp)
   83c64:	3805883a 	mov	r2,r7
   83c68:	e0bfff05 	stb	r2,-4(fp)
  int return_value;
  unsigned char background_red, background_green, background_blue;
  unsigned int blended_red, blended_green, blended_blue;  // short since there may be overflow to be clipped
  
  // set red, green, and blue of the background color
  if(background_color == CLEAR_BACKGROUND)
   83c6c:	e0bffe17 	ldw	r2,-8(fp)
   83c70:	10bfffd8 	cmpnei	r2,r2,-1
   83c74:	10000c1e 	bne	r2,zero,83ca8 <alpha_blending+0x60>
  {
    read_from_frame (horiz_offset, vert_offset, &background_red, &background_green, &background_blue, display);
   83c78:	e0fffb04 	addi	r3,fp,-20
   83c7c:	e0bffb44 	addi	r2,fp,-19
   83c80:	e13ffb84 	addi	r4,fp,-18
   83c84:	d9000015 	stw	r4,0(sp)
   83c88:	e1000517 	ldw	r4,20(fp)
   83c8c:	d9000115 	stw	r4,4(sp)
   83c90:	e13ffc17 	ldw	r4,-16(fp)
   83c94:	e17ffd17 	ldw	r5,-12(fp)
   83c98:	180d883a 	mov	r6,r3
   83c9c:	100f883a 	mov	r7,r2
   83ca0:	0083c080 	call	83c08 <read_from_frame>
   83ca4:	00000a06 	br	83cd0 <alpha_blending+0x88>
  }
  else
  {
    seperate_color_channels(display->color_depth, (unsigned char *)&background_color, &background_red, &background_green, &background_blue);
   83ca8:	e0800517 	ldw	r2,20(fp)
   83cac:	11000017 	ldw	r4,0(r2)
   83cb0:	e17ffe04 	addi	r5,fp,-8
   83cb4:	e0fffb04 	addi	r3,fp,-20
   83cb8:	e0bffb44 	addi	r2,fp,-19
   83cbc:	e1bffb84 	addi	r6,fp,-18
   83cc0:	d9800015 	stw	r6,0(sp)
   83cc4:	180d883a 	mov	r6,r3
   83cc8:	100f883a 	mov	r7,r2
   83ccc:	008396c0 	call	8396c <seperate_color_channels>
  }

  // these blended colors may need to be clipped to the maximum amounts the color depth supports
  blended_red = (((*red) * alpha) + (background_red * (255 - alpha)))/255;
   83cd0:	e0800217 	ldw	r2,8(fp)
   83cd4:	10800003 	ldbu	r2,0(r2)
   83cd8:	10c03fcc 	andi	r3,r2,255
   83cdc:	e0bfff03 	ldbu	r2,-4(fp)
   83ce0:	1887383a 	mul	r3,r3,r2
   83ce4:	e0bffb03 	ldbu	r2,-20(fp)
   83ce8:	11003fcc 	andi	r4,r2,255
   83cec:	e0bfff03 	ldbu	r2,-4(fp)
   83cf0:	01403fc4 	movi	r5,255
   83cf4:	2885c83a 	sub	r2,r5,r2
   83cf8:	2085383a 	mul	r2,r4,r2
   83cfc:	1885883a 	add	r2,r3,r2
   83d00:	1009883a 	mov	r4,r2
   83d04:	01403fc4 	movi	r5,255
   83d08:	00882800 	call	88280 <__divsi3>
   83d0c:	e0bff815 	stw	r2,-32(fp)
  blended_green = (((*green) * alpha) + (background_green * (255 - alpha)))/255;
   83d10:	e0800317 	ldw	r2,12(fp)
   83d14:	10800003 	ldbu	r2,0(r2)
   83d18:	10c03fcc 	andi	r3,r2,255
   83d1c:	e0bfff03 	ldbu	r2,-4(fp)
   83d20:	1887383a 	mul	r3,r3,r2
   83d24:	e0bffb43 	ldbu	r2,-19(fp)
   83d28:	11003fcc 	andi	r4,r2,255
   83d2c:	e0bfff03 	ldbu	r2,-4(fp)
   83d30:	01403fc4 	movi	r5,255
   83d34:	2885c83a 	sub	r2,r5,r2
   83d38:	2085383a 	mul	r2,r4,r2
   83d3c:	1885883a 	add	r2,r3,r2
   83d40:	1009883a 	mov	r4,r2
   83d44:	01403fc4 	movi	r5,255
   83d48:	00882800 	call	88280 <__divsi3>
   83d4c:	e0bff915 	stw	r2,-28(fp)
  blended_blue = (((*blue) * alpha) + (background_blue * (255 - alpha)))/255;
   83d50:	e0800417 	ldw	r2,16(fp)
   83d54:	10800003 	ldbu	r2,0(r2)
   83d58:	10c03fcc 	andi	r3,r2,255
   83d5c:	e0bfff03 	ldbu	r2,-4(fp)
   83d60:	1887383a 	mul	r3,r3,r2
   83d64:	e0bffb83 	ldbu	r2,-18(fp)
   83d68:	11003fcc 	andi	r4,r2,255
   83d6c:	e0bfff03 	ldbu	r2,-4(fp)
   83d70:	01403fc4 	movi	r5,255
   83d74:	2885c83a 	sub	r2,r5,r2
   83d78:	2085383a 	mul	r2,r4,r2
   83d7c:	1885883a 	add	r2,r3,r2
   83d80:	1009883a 	mov	r4,r2
   83d84:	01403fc4 	movi	r5,255
   83d88:	00882800 	call	88280 <__divsi3>
   83d8c:	e0bffa15 	stw	r2,-24(fp)
  

  if(display->color_depth == 16)
   83d90:	e0800517 	ldw	r2,20(fp)
   83d94:	10800017 	ldw	r2,0(r2)
   83d98:	10800418 	cmpnei	r2,r2,16
   83d9c:	1000181e 	bne	r2,zero,83e00 <alpha_blending+0x1b8>
  {
    *red = (blended_red > 0x1F)? 0x1F: blended_red;
   83da0:	e0bff817 	ldw	r2,-32(fp)
   83da4:	10c00830 	cmpltui	r3,r2,32
   83da8:	1800011e 	bne	r3,zero,83db0 <alpha_blending+0x168>
   83dac:	008007c4 	movi	r2,31
   83db0:	1007883a 	mov	r3,r2
   83db4:	e0800217 	ldw	r2,8(fp)
   83db8:	10c00005 	stb	r3,0(r2)
    *green = (blended_green > 0x3F)? 0x3F: blended_green;
   83dbc:	e0bff917 	ldw	r2,-28(fp)
   83dc0:	10c01030 	cmpltui	r3,r2,64
   83dc4:	1800011e 	bne	r3,zero,83dcc <alpha_blending+0x184>
   83dc8:	00800fc4 	movi	r2,63
   83dcc:	1007883a 	mov	r3,r2
   83dd0:	e0800317 	ldw	r2,12(fp)
   83dd4:	10c00005 	stb	r3,0(r2)
    *blue = (blended_blue > 0x1F)? 0x1F: blended_blue; 
   83dd8:	e0bffa17 	ldw	r2,-24(fp)
   83ddc:	10c00830 	cmpltui	r3,r2,32
   83de0:	1800011e 	bne	r3,zero,83de8 <alpha_blending+0x1a0>
   83de4:	008007c4 	movi	r2,31
   83de8:	1007883a 	mov	r3,r2
   83dec:	e0800417 	ldw	r2,16(fp)
   83df0:	10c00005 	stb	r3,0(r2)
    return_value = 1;        
   83df4:	00800044 	movi	r2,1
   83df8:	e0bff715 	stw	r2,-36(fp)
   83dfc:	00002106 	br	83e84 <alpha_blending+0x23c>
  }
  else if((display->color_depth == 24) || (display->color_depth == 32))
   83e00:	e0800517 	ldw	r2,20(fp)
   83e04:	10800017 	ldw	r2,0(r2)
   83e08:	10800620 	cmpeqi	r2,r2,24
   83e0c:	1000041e 	bne	r2,zero,83e20 <alpha_blending+0x1d8>
   83e10:	e0800517 	ldw	r2,20(fp)
   83e14:	10800017 	ldw	r2,0(r2)
   83e18:	10800818 	cmpnei	r2,r2,32
   83e1c:	1000181e 	bne	r2,zero,83e80 <alpha_blending+0x238>
  {
    *red = (blended_red > 0xFF)? 0xFF: blended_red;
   83e20:	e0bff817 	ldw	r2,-32(fp)
   83e24:	10c04030 	cmpltui	r3,r2,256
   83e28:	1800011e 	bne	r3,zero,83e30 <alpha_blending+0x1e8>
   83e2c:	00803fc4 	movi	r2,255
   83e30:	1007883a 	mov	r3,r2
   83e34:	e0800217 	ldw	r2,8(fp)
   83e38:	10c00005 	stb	r3,0(r2)
    *green = (blended_green > 0xFF)? 0xFF: blended_green;
   83e3c:	e0bff917 	ldw	r2,-28(fp)
   83e40:	10c04030 	cmpltui	r3,r2,256
   83e44:	1800011e 	bne	r3,zero,83e4c <alpha_blending+0x204>
   83e48:	00803fc4 	movi	r2,255
   83e4c:	1007883a 	mov	r3,r2
   83e50:	e0800317 	ldw	r2,12(fp)
   83e54:	10c00005 	stb	r3,0(r2)
    *blue = (blended_blue > 0xFF)? 0xFF: blended_blue; 
   83e58:	e0bffa17 	ldw	r2,-24(fp)
   83e5c:	10c04030 	cmpltui	r3,r2,256
   83e60:	1800011e 	bne	r3,zero,83e68 <alpha_blending+0x220>
   83e64:	00803fc4 	movi	r2,255
   83e68:	1007883a 	mov	r3,r2
   83e6c:	e0800417 	ldw	r2,16(fp)
   83e70:	10c00005 	stb	r3,0(r2)
    return_value = 1;            
   83e74:	00800044 	movi	r2,1
   83e78:	e0bff715 	stw	r2,-36(fp)
   83e7c:	00000106 	br	83e84 <alpha_blending+0x23c>
  }
  else
  {
    return_value = 0;     
   83e80:	e03ff715 	stw	zero,-36(fp)
  }  
 
  return return_value;
   83e84:	e0bff717 	ldw	r2,-36(fp)
} 
   83e88:	e037883a 	mov	sp,fp
   83e8c:	dfc00117 	ldw	ra,4(sp)
   83e90:	df000017 	ldw	fp,0(sp)
   83e94:	dec00204 	addi	sp,sp,8
   83e98:	f800283a 	ret

00083e9c <vid_print_char_alpha>:
*           screen using the specified font and color.
*
******************************************************************/

int vid_print_char_alpha (int horiz_offset, int vert_offset, int color, char character, int background_color, struct abc_font_struct font[], alt_video_display * display)
{
   83e9c:	defff004 	addi	sp,sp,-64
   83ea0:	dfc00f15 	stw	ra,60(sp)
   83ea4:	df000e15 	stw	fp,56(sp)
   83ea8:	df000e04 	addi	fp,sp,56
   83eac:	e13ffc15 	stw	r4,-16(fp)
   83eb0:	e17ffd15 	stw	r5,-12(fp)
   83eb4:	e1bffe15 	stw	r6,-8(fp)
   83eb8:	3805883a 	mov	r2,r7
   83ebc:	e0bfff05 	stb	r2,-4(fp)
  unsigned char original_red, original_blue, original_green;
  unsigned char red, green, blue;
  int new_color;

  // Assign the pointer of the font bitmap
  alpha = font[character-33].char_alpha_map;
   83ec0:	e0bfff07 	ldb	r2,-4(fp)
   83ec4:	10bff7c4 	addi	r2,r2,-33
   83ec8:	1004917a 	slli	r2,r2,5
   83ecc:	e0c00317 	ldw	r3,12(fp)
   83ed0:	1885883a 	add	r2,r3,r2
   83ed4:	10800617 	ldw	r2,24(r2)
   83ed8:	e0bff815 	stw	r2,-32(fp)

  // set red, green, and blue of the font color  
  seperate_color_channels(display->color_depth, (char *)&color, &original_red, &original_green, &original_blue);
   83edc:	e0800417 	ldw	r2,16(fp)
   83ee0:	11000017 	ldw	r4,0(r2)
   83ee4:	e17ffe04 	addi	r5,fp,-8
   83ee8:	e0fff904 	addi	r3,fp,-28
   83eec:	e0bff984 	addi	r2,fp,-26
   83ef0:	e1bff944 	addi	r6,fp,-27
   83ef4:	d9800015 	stw	r6,0(sp)
   83ef8:	180d883a 	mov	r6,r3
   83efc:	100f883a 	mov	r7,r2
   83f00:	008396c0 	call	8396c <seperate_color_channels>

  for(i = 0; i < font[character-33].bounds_height; i++) {
   83f04:	e03ff615 	stw	zero,-40(fp)
   83f08:	00004606 	br	84024 <vid_print_char_alpha+0x188>
    for (j = 0; j < font[character-33].bounds_width; j++) {
   83f0c:	e03ff715 	stw	zero,-36(fp)
   83f10:	00003906 	br	83ff8 <vid_print_char_alpha+0x15c>
      red = original_red;
   83f14:	e0bff903 	ldbu	r2,-28(fp)
   83f18:	e0bff9c5 	stb	r2,-25(fp)
      green = original_green;
   83f1c:	e0bff983 	ldbu	r2,-26(fp)
   83f20:	e0bffa05 	stb	r2,-24(fp)
      blue = original_blue;
   83f24:	e0bff943 	ldbu	r2,-27(fp)
   83f28:	e0bffa45 	stb	r2,-23(fp)

      // send in the font alpha channel and the colour channels for the blending to occur
      alpha_blending ((horiz_offset + j), (vert_offset + i), background_color, *alpha, &red, &green, &blue, display);
   83f2c:	e0fffc17 	ldw	r3,-16(fp)
   83f30:	e0bff717 	ldw	r2,-36(fp)
   83f34:	1889883a 	add	r4,r3,r2
   83f38:	e0fffd17 	ldw	r3,-12(fp)
   83f3c:	e0bff617 	ldw	r2,-40(fp)
   83f40:	1887883a 	add	r3,r3,r2
   83f44:	e0bff817 	ldw	r2,-32(fp)
   83f48:	10800003 	ldbu	r2,0(r2)
   83f4c:	10803fcc 	andi	r2,r2,255
   83f50:	e17ff9c4 	addi	r5,fp,-25
   83f54:	d9400015 	stw	r5,0(sp)
   83f58:	e17ffa04 	addi	r5,fp,-24
   83f5c:	d9400115 	stw	r5,4(sp)
   83f60:	e17ffa44 	addi	r5,fp,-23
   83f64:	d9400215 	stw	r5,8(sp)
   83f68:	e1400417 	ldw	r5,16(fp)
   83f6c:	d9400315 	stw	r5,12(sp)
   83f70:	180b883a 	mov	r5,r3
   83f74:	e1800217 	ldw	r6,8(fp)
   83f78:	100f883a 	mov	r7,r2
   83f7c:	0083c480 	call	83c48 <alpha_blending>

      // take the blended pixel and merge the color channels back into a single pixel value 
      merge_color_channels(display->color_depth, red, green, blue, (char *)&new_color);
   83f80:	e0800417 	ldw	r2,16(fp)
   83f84:	11000017 	ldw	r4,0(r2)
   83f88:	e0bff9c3 	ldbu	r2,-25(fp)
   83f8c:	11403fcc 	andi	r5,r2,255
   83f90:	e0bffa03 	ldbu	r2,-24(fp)
   83f94:	10c03fcc 	andi	r3,r2,255
   83f98:	e0bffa43 	ldbu	r2,-23(fp)
   83f9c:	10803fcc 	andi	r2,r2,255
   83fa0:	e1bffb04 	addi	r6,fp,-20
   83fa4:	d9800015 	stw	r6,0(sp)
   83fa8:	180d883a 	mov	r6,r3
   83fac:	100f883a 	mov	r7,r2
   83fb0:	0083ac00 	call	83ac0 <merge_color_channels>
      
      // write the new pixel value out to memory overwriting the current background     
      vid_set_pixel((horiz_offset + j), (vert_offset + i), new_color, display);     
   83fb4:	e0fffc17 	ldw	r3,-16(fp)
   83fb8:	e0bff717 	ldw	r2,-36(fp)
   83fbc:	1889883a 	add	r4,r3,r2
   83fc0:	e0fffd17 	ldw	r3,-12(fp)
   83fc4:	e0bff617 	ldw	r2,-40(fp)
   83fc8:	1887883a 	add	r3,r3,r2
   83fcc:	e0bffb17 	ldw	r2,-20(fp)
   83fd0:	180b883a 	mov	r5,r3
   83fd4:	100d883a 	mov	r6,r2
   83fd8:	e1c00417 	ldw	r7,16(fp)
   83fdc:	0081b140 	call	81b14 <vid_set_pixel>

      alpha++;
   83fe0:	e0bff817 	ldw	r2,-32(fp)
   83fe4:	10800044 	addi	r2,r2,1
   83fe8:	e0bff815 	stw	r2,-32(fp)

  // set red, green, and blue of the font color  
  seperate_color_channels(display->color_depth, (char *)&color, &original_red, &original_green, &original_blue);

  for(i = 0; i < font[character-33].bounds_height; i++) {
    for (j = 0; j < font[character-33].bounds_width; j++) {
   83fec:	e0bff717 	ldw	r2,-36(fp)
   83ff0:	10800044 	addi	r2,r2,1
   83ff4:	e0bff715 	stw	r2,-36(fp)
   83ff8:	e0fff717 	ldw	r3,-36(fp)
   83ffc:	e0bfff07 	ldb	r2,-4(fp)
   84000:	10bff7c4 	addi	r2,r2,-33
   84004:	1004917a 	slli	r2,r2,5
   84008:	e1000317 	ldw	r4,12(fp)
   8400c:	2085883a 	add	r2,r4,r2
   84010:	10800417 	ldw	r2,16(r2)
   84014:	18bfbf36 	bltu	r3,r2,83f14 <vid_print_char_alpha+0x78>
  alpha = font[character-33].char_alpha_map;

  // set red, green, and blue of the font color  
  seperate_color_channels(display->color_depth, (char *)&color, &original_red, &original_green, &original_blue);

  for(i = 0; i < font[character-33].bounds_height; i++) {
   84018:	e0bff617 	ldw	r2,-40(fp)
   8401c:	10800044 	addi	r2,r2,1
   84020:	e0bff615 	stw	r2,-40(fp)
   84024:	e0fff617 	ldw	r3,-40(fp)
   84028:	e0bfff07 	ldb	r2,-4(fp)
   8402c:	10bff7c4 	addi	r2,r2,-33
   84030:	1004917a 	slli	r2,r2,5
   84034:	e1000317 	ldw	r4,12(fp)
   84038:	2085883a 	add	r2,r4,r2
   8403c:	10800517 	ldw	r2,20(r2)
   84040:	18bfb236 	bltu	r3,r2,83f0c <vid_print_char_alpha+0x70>

      alpha++;
    }
  }

  return(0);
   84044:	0005883a 	mov	r2,zero
}
   84048:	e037883a 	mov	sp,fp
   8404c:	dfc00117 	ldw	ra,4(sp)
   84050:	df000017 	ldw	fp,0(sp)
   84054:	dec00204 	addi	sp,sp,8
   84058:	f800283a 	ret

0008405c <vid_string_pixel_length_alpha>:
*           font.  Useful for centering text, and determining the
*           appropriate size of a text box or button.
*
